(lp0
Vpidi
p1
aVdiosit
p2
aVcobij
p3
aVelegi
p4
aVhijoo
p5
aVnegr
p6
aVxochimilc
p7
aVall
p8
aVayud
p9
aVcoloniadelvall
p10
aVmansion
p11
aVescribi
p12
aVansios
p13
aVergu
p14
aVocuituc
p15
aVconst
p16
aVpromocion
p17
aVtweet
p18
aVchequetet
p19
aVigual
p20
aVabre
p21
aVaut
p22
aVregal
p23
aVlizzeth
p24
aVsorry
p25
aVcanel
p26
aVcampech
p27
aVdemasi
p28
aVmanit
p29
aVmadafak
p30
aVfuent
p31
aVhermos
p32
aVcasat
p33
aVjack
p34
aVmedicament
p35
aVneuv
p36
aVtucum
p37
aVpinch
p38
aV2315
p39
aV2312
p40
aVgoaaals
p41
aVtuits
p42
aVprobabil
p43
aVverid
p44
aVwerev
p45
aVfarmaceut
p46
aVcodig
p47
aVyuyitat
p48
aVtepetzing
p49
aVaeropuert
p50
aVdirect
p51
aVfuers
p52
aVcuentan
p53
aVnobsabws
p54
aVchec
p55
aVfuert
p56
aVfuerz
p57
aVyeeeyy
p58
aVfech
p59
aVnen
p60
aVnee
p61
aVmuer
p62
aVeco
p63
aVfavooooor
p64
aVnet
p65
aVhazl
p66
aVlohiz
p67
aVmed
p68
aVmeg
p69
aVhero
p70
aVherm
p71
aVxfa
p72
aVpueblamorel
p73
aVmen
p74
aVmej
p75
aVmet
p76
aVching
p77
aVpreparat
p78
aVmes
p79
aVdorm
p80
aVbrigad
p81
aV100
p82
aVtodooo
p83
aVmex
p84
aVchilen
p85
aVprecis
p86
aVpermit
p87
aVsismocdmx
p88
aVsentimient
p89
aVesfuerz
p90
aVtremend
p91
aVunim
p92
aVunic
p93
aVinfantil
p94
aVunid
p95
aVbro
p96
aVhahahahah
p97
aVinsta
p98
aVtlaltizap
p99
aVunir
p100
aVshamp
p101
aVtotal
p102
aVdandol
p103
aVunit
p104
aVcalz
p105
aVdescrib
p106
aVviveresnuestr
p107
aVarmy
p108
aVhospital
p109
aVplox
p110
aVinsult
p111
aVcall
p112
aVcalm
p113
aVpuest
p114
aVafectadoslovearmymex
p115
aVpuesy
p116
aVtell
p117
aVarma
p118
aVgriet
p119
aVsenal
p120
aVris
p121
aVrecet
p122
aVgrieg
p123
aVrelaj
p124
aVorganic
p125
aVhola
p126
aVma
p127
aVpierd
p128
aVere
p129
aVmw
p130
aVenorgullec
p131
aVgaruch
p132
aVmy
p133
aVmx
p134
aVsav
p135
aVmanteng
p136
aVnoticier
p137
aVindic
p138
aVmantent
p139
aVmalign
p140
aVpiruj
p141
aVmejor
p142
aVdiari
p143
aVpliss
p144
aVedicion
p145
aVamaneci
p146
aVgigant
p147
aVhog
p148
aVsantand
p149
aVhol
p150
aV120000000
p151
aVconcis
p152
aVcaid
p153
aVhor
p154
aVlaimf
p155
aVrtporf
p156
aVchiquitahub
p157
aVbancari
p158
aVbeauty
p159
aVsolidari
p160
aVlad
p161
aVadrian
p162
aVlaa
p163
aVmadrug
p164
aVtatuaj
p165
aVpalabr
p166
aVgoogl
p167
aVcondolensi
p168
aVorden
p169
aVdomin
p170
aVamig
p171
aVamic
p172
aVamix
p173
aVenter
p174
aVexclus
p175
aVjajajaj
p176
aVverd
p177
aVserv
p178
aVmaquet
p179
aVdeci
p180
aVconsent
p181
aVfisur
p182
aVorand
p183
aVencerr
p184
aVwue
p185
aVdonart
p186
aVninit
p187
aVpazparaelmund
p188
aVgach
p189
aVpersonal
p190
aVfix
p191
aVcres
p192
aVedomex
p193
aVguadaluth
p194
aVimp
p195
aVjajajajajajajajajaj
p196
aVcrem
p197
aVvalor
p198
aVfij
p199
aVcrec
p200
aVcred
p201
aVtecomalc
p202
aVmex64
p203
aVproporcion
p204
aVthem
p205
aVanim
p206
aVtwite
p207
aVcubiert
p208
aVempujon
p209
aVtwitt
p210
aVthey
p211
aVconsecuent
p212
aVthes
p213
aVther
p214
aVenamor
p215
aVretuv
p216
aVaport
p217
aVarrob
p218
aVarrog
p219
aVvigent
p220
aVlucy
p221
aValem
p222
aVboni
p223
aValej
p224
aVarroz
p225
aVluch
p226
aVarregl
p227
aVportatil
p228
aVlogr
p229
aVcaer
p230
aVlaboratori
p231
aVenorm
p232
aVallam
p233
aVfeooo
p234
aVveracruz
p235
aVporfavor
p236
aV2309
p237
aVhogar
p238
aVmatat
p239
aVgod
p240
aVvillalob
p241
aVdiesel
p242
aVaju
p243
aVgustari
p244
aVgob
p245
aVcontent
p246
aVre
p247
aVdaniel
p248
aVdejasel
p249
aVnuncs
p250
aVaja
p251
aVcompanerit
p252
aVdisculp
p253
aVplsss
p254
aVntp
p255
aVinfin
p256
aVentrar
p257
aVntc
p258
aVguapur
p259
aVafect
p260
aVchiap
p261
aVamacuzac
p262
aVdayud
p263
aVoutfits
p264
aVhech
p265
aVpagin
p266
aVaca
p267
aVpoquit
p268
aVintentar
p269
aVfantasi
p270
aVpresion
p271
aVagradec
p272
aVtehuixtl
p273
aVangelit
p274
aVambul
p275
aVhool
p276
aVente
p277
aVawueb
p278
aVpoblan
p279
aVnomin
p280
aVtop
p281
aVtov
p282
aVcalori
p283
aVrond
p284
aVyespornpl
p285
aVrater
p286
aVtom
p287
aVtoc
p288
aVireee
p289
aVtod
p290
aVmexicanosv
p291
aVasegur
p292
aVgym
p293
aVabrir
p294
aVtampoc
p295
aVpuebl
p296
aValberg
p297
aVchef
p298
aVmexicanosfuert
p299
aVtios
p300
aVdistanci
p301
aVaztec
p302
aVtrailersayud
p303
aValent
p304
aVfriend
p305
aV1600
p306
aVminut
p307
aVabuel
p308
aVraf
p309
aVmini
p310
aVhermosoo
p311
aVfashion
p312
aVfarruk
p313
aVpalaci
p314
aVhicem
p315
aVsenti
p316
aVrat
p317
aVculiac
p318
aVrar
p319
aVrap
p320
aVautobus
p321
aVmierd
p322
aVray
p323
aVescrib
p324
aVmarrulleri
p325
aVignorat
p326
aVtlayacap
p327
aVavion
p328
aVimpotent
p329
aVtransmit
p330
aVnayarit
p331
aVmexicoentiemporeal
p332
aVgto
p333
aVcrei
p334
aVinsum
p335
aVcaliforni
p336
aVcuer
p337
aVteodior
p338
aVdon
p339
aVinigual
p340
aVabastec
p341
aVflor
p342
aVpacienci
p343
aVurgenci
p344
aVdummi
p345
aVcami
p346
aVdoy
p347
aVxo
p348
aVlluev
p349
aVpotosi
p350
aVsumat
p351
aVduerm
p352
aVsaying
p353
aVviralic
p354
aVengendr
p355
aVpatet
p356
aVcabel
p357
aVyuyiit
p358
aVcompartanm
p359
aVdesmadr
p360
aVbaja
p361
aVcomprob
p362
aVbail
p363
aVcabez
p364
aVbezzzz
p365
aVayudal
p366
aVcondulent
p367
aVcabify
p368
aVweon
p369
aVment
p370
aVhrs
p371
aVbolet
p372
aVcarit
p373
aVexplic
p374
aVrich
p375
aVbusc
p376
aValde
p377
aVcamioner
p378
aV11
p379
aVdm
p380
aVcamionet
p381
aVdi
p382
aVdf
p383
aVplasm
p384
aVstop
p385
aVorganizacion
p386
aVcongruent
p387
aVposibil
p388
aVrepresentacion
p389
aVjoven
p390
aVhazn
p391
aVreport
p392
aVyoutub
p393
aVtips
p394
aVconvivi
p395
aVbas
p396
aVxdxx
p397
aVguerrer
p398
aVbaumanometr
p399
aVbuscador
p400
aVcomprar
p401
aV19
p402
aVxdxd
p403
aVban
p404
aVbaj
p405
aVarrepient
p406
aVrespond
p407
aVmyidol
p408
aVperrun
p409
aVesfichis
p410
aVhabit
p411
aVmatamor
p412
aVjajajajajajajajaj
p413
aVemergent
p414
aVchiclay
p415
aVpubliqu
p416
aVpadr
p417
aVrespons
p418
aVcabron
p419
aVnub
p420
aVyutub
p421
aVbest
p422
aVnutriolog
p423
aVawar
p424
aVsorprenderi
p425
aVpiojit
p426
aVpetc
p427
aVmur
p428
aVcampan
p429
aVpfff
p430
aVambas
p431
aVbien
p432
aVabuelit
p433
aVconchit
p434
aVmun
p435
aVire
p436
aVconchis
p437
aVmuj
p438
aVetologol
p439
aVwe
p440
aVomg
p441
aVteam
p442
aVhocic
p443
aVjonacatepec
p444
aVgarruch
p445
aVnews
p446
aVbateri
p447
aVpancart
p448
aVestacion
p449
aVcos
p450
aVconch
p451
aVbraz
p452
aVheemos
p453
aVjajajajjsjss
p454
aVjanacatepec
p455
aVcod
p456
aVlogic
p457
aVcumpl
p458
aVuni
p459
aVantoni
p460
aVcom
p461
aVcol
p462
aVbram
p463
aVcon
p464
aVfavoooor
p465
aV900
p466
aV1250
p467
aVmultifamili
p468
aVtont
p469
aViras
p470
aVlluvi
p471
aVayudenmeadifund
p472
aVayal
p473
aVunion
p474
aVculp
p475
aVfri
p476
aVdifund
p477
aV107
p478
aVencarg
p479
aVmuch
p480
aVbasic
p481
aVmayuscul
p482
aVcantadaa
p483
aVgabby
p484
aVidol
p485
aVplaz
p486
aVayudart
p487
aVrecomend
p488
aValegr
p489
aVconvivent
p490
aV7v7
p491
aVreten
p492
aVesteriliz
p493
aVmandal
p494
aVcambi
p495
aVsuav
p496
aVaparent
p497
aVsonrisadisfrutal
p498
aVrecaud
p499
aVair
p500
aVmentir
p501
aVemilian
p502
aVeeeaaa
p503
aVtant
p504
aVmanej
p505
aVwereb
p506
aVcont
p507
aVis
p508
aVemez
p509
aVdescans
p510
aVmision
p511
aVcans
p512
aVconf
p513
aVin
p514
aVquebrantader
p515
aVig
p516
aVplis
p517
aVextranab
p518
aVthings
p519
aVocpxaltepec
p520
aVinformacion
p521
aVchilit
p522
aVbeautyblogg
p523
aVventeeee
p524
aVsimil
p525
aVhahah
p526
aVfotoo
p527
aVrelacion
p528
aVcomplet
p529
aVetcatcing
p530
aValumn
p531
aVmillonari
p532
aVdeacuerd
p533
aVkik
p534
aVevit
p535
aVyop
p536
aVmuuuy
p537
aVinteligent
p538
aValgun
p539
aValgui
p540
aVthretharatori
p541
aVepn
p542
aVcontact
p543
aVespiritu
p544
aVpublicacion
p545
aVthe
p546
aVcarcel
p547
aVpondri
p548
aVyel
p549
aVjust
p550
aVvendr
p551
aVnewton
p552
aVdistint
p553
aVlimitest
p554
aVdestron
p555
aVhuman
p556
aVhallow
p557
aVhah
p558
aVchinga
p559
aVamarg
p560
aVputeri
p561
aVrecuerd
p562
aValborot
p563
aVhac
p564
aVsutilez
p565
aVhag
p566
aVhaz
p567
aVprueb
p568
aVvier
p569
aVhar
p570
aVzaragoz
p571
aVunsol
p572
aVdonat
p573
aVapare
p574
aVpochotal
p575
aVposey
p576
aVoj
p577
aV3pm
p578
aVdonan
p579
aVpereceder
p580
aVapart
p581
aVinste
p582
aVfotoesper
p583
aVamoo
p584
aVmanzanill
p585
aVvis
p586
aV57
p587
aVnegat
p588
aVdarn
p589
aVagrad
p590
aVamor
p591
aVenchin
p592
aVmexic
p593
aVjojutl
p594
aVlugar
p595
aVcreem
p596
aVextranart
p597
aVrepart
p598
aVmanual
p599
aVdespiert
p600
aVmaxim
p601
aVacas
p602
aVencantari
p603
aVbandon
p604
aVaparec
p605
aVtutorial
p606
aVfot
p607
aVdecirt
p608
aVcooper
p609
aVfor
p610
aVjueg
p611
aVeverything
p612
aVimpresion
p613
aVubicam
p614
aVjuev
p615
aVoficin
p616
aVparticular
p617
aVpls
p618
aVdescarg
p619
aVdefend
p620
aVconfes
p621
aVobsesion
p622
aVcort
p623
aVple
p624
aVfuerzanex
p625
aVcorr
p626
aVburr
p627
aVpost
p628
aVsuper
p629
aVemoch
p630
aVdesastr
p631
aValexand
p632
aVdiner
p633
aVsensibil
p634
aVamooooooooooooooo
p635
aVescen
p636
aVcoraj
p637
aVtuuuu
p638
aVopin
p639
aVsept
p640
aVafortunadamdnt
p641
aVestomag
p642
aVaber
p643
aValmacen
p644
aVola
p645
aVferi
p646
aVsoh
p647
aVahh
p648
aVpresenci
p649
aVxhef
p650
aVson
p651
aVahr
p652
aVppr
p653
aVsos
p654
aVferr
p655
aVvuelt
p656
aVvuelv
p657
aVoportun
p658
aVahy
p659
aVacab
p660
aVjajajaajajjajajaaj
p661
aVgir
p662
aVnovi
p663
aVrapel
p664
aVomgggg
p665
aVdisposicion
p666
aVimit
p667
aVformul
p668
aVwaw
p669
aVmusic
p670
aVwuapur
p671
aVsaratoga714
p672
aVescombr
p673
aVform
p674
aVsolidar
p675
aVborr
p676
aVuuuu
p677
aVberg
p678
aVjejej
p679
aVduel
p680
aVmty
p681
aVmts
p682
aVinfeliz
p683
aVespwrar
p684
aVcreyend
p685
aVinfelic
p686
aVayudanl
p687
aVretir
p688
aVadoro
p689
aVpuaj
p690
aVbloqu
p691
aVfurz
p692
aVhistory
p693
aVshid
p694
aVadoptamee
p695
aVmuebl
p696
aVexist
p697
aVni
p698
aVleer
p699
aVayudem
p700
aVayuden
p701
aVno
p702
aVapareci
p703
aVna
p704
aVpanam
p705
aVpanal
p706
aVtip
p707
aVne
p708
aVtir
p709
aVtio
p710
aVtii
p711
aVpresum
p712
aVleem
p713
aVtia
p714
aVconect
p715
aVacumul
p716
aVsonris
p717
aVoremospor
p718
aVdies
p719
aVdenl
p720
aVverguenz
p721
aVhormon
p722
aVperuan
p723
aVcabellud
p724
aVintens
p725
aVconsig
p726
aVdiec
p727
aVdetox
p728
aVobras
p729
aVtrasl
p730
aVtoluc
p731
aVfinnnn
p732
aVx100000000
p733
aVignor
p734
aVpior
p735
aVaslo
p736
aVroj
p737
aVrom
p738
aVsegu
p739
aVrob
p740
aVjejejejej
p741
aVinvent
p742
aVrog
p743
aVteextran
p744
aVmenor
p745
aVmorelooosss
p746
aVespecifiqu
p747
aVrop
p748
aVmill
p749
aVros
p750
aVose
p751
aVinfonavitcag
p752
aVjiji
p753
aVvet
p754
aVmanchest
p755
aVver
p756
aVves
p757
aVproxim
p758
aVtetelill
p759
aVafortun
p760
aVcomun
p761
aVguatemal
p762
aVvejez
p763
aVven
p764
aVveo
p765
aVvem
p766
aVvei
p767
aVnomem
p768
aVdepartament
p769
aVtendr
p770
aVpele
p771
aVyadiiiiiii
p772
aVcumpli
p773
aVexact
p774
aVeducal
p775
aVcool
p776
aVdil
p777
aVdim
p778
aVepic
p779
aVtumb
p780
aVdij
p781
aVestad
p782
aVmaltrat
p783
aVenoj
p784
aVdig
p785
aVposts
p786
aVporfis
p787
aVdic
p788
aVporfin
p789
aVrecolecci
p790
aVautografi
p791
aVsignif
p792
aVdir
p793
aVpoblacion
p794
aVregres
p795
aVbe
p796
aVcolect
p797
aVcompens
p798
aVparvovirus
p799
aVporf
p800
aVverificado19s
p801
aVahorit
p802
aVcost
p803
aVsigu
p804
aVhijadetuputamadr
p805
aVporq
p806
aVpedi
p807
aVport
p808
aVjajajjajajajaj
p809
aVabrac
p810
aVcorazon
p811
aVinspiracion
p812
aVdesesper
p813
aVrequer
p814
aVmatari
p815
aVcursi
p816
aVquedat
p817
aV1015
p818
aVbn
p819
aVgoez
p820
aVabrazal
p821
aVgener
p822
aVmakeup
p823
aVpurin
p824
aVsonpartedenosotr
p825
aVfocaliz
p826
aVperoooo
p827
aVmald
p828
aVchapultepec
p829
aValto
p830
aVetolog
p831
aVinvit
p832
aVbot
p833
aVbols
p834
aValta
p835
aVlastim
p836
aVbol
p837
aV90off
p838
aVpendient
p839
aVminecraft
p840
aVrafael
p841
aV3057603384
p842
aVciel
p843
aVprefer
p844
aVcabell
p845
aVabast
p846
aVipr
p847
aVjajajajajajajajjajaj
p848
aValedan
p849
aVinstal
p850
aVmonterrey
p851
aVinstastori
p852
aVpren
p853
aVbendec
p854
aVande
p855
aVunivers
p856
aVanda
p857
aVreproduzc
p858
aVimpos
p859
aVpers
p860
aVperr
p861
aVpeticion
p862
aVayy
p863
aVrut
p864
aVperu
p865
aVjajja
p866
aVayu
p867
aVsatan
p868
aVchalleng
p869
aVsuceder
p870
aVjak
p871
aVvous
p872
aVoblig
p873
aVorem
p874
aVpeopl
p875
aVshing
p876
aVimportantisim
p877
aVojal
p878
aVrisaterapi
p879
aVmascot
p880
aVconsigu
p881
aVcas
p882
aVcar
p883
aVprepar
p884
aVreplet
p885
aVcaj
p886
aVcam
p887
aVcomprension
p888
aVcab
p889
aVratit
p890
aVcag
p891
aVirle
p892
aVdiminut
p893
aVedna
p894
aVfeos
p895
aVfuck
p896
aVacorral
p897
aVcritic
p898
aVabort
p899
aVchin
p900
aVgobiern
p901
aVchil
p902
aVdisfrut
p903
aVchic
p904
aVpolipast
p905
aVjuchit
p906
aVchid
p907
aVagradecert
p908
aVatent
p909
aVmultipl
p910
aVbetoooo
p911
aVjiutepec
p912
aVe7743
p913
aVdesconfi
p914
aVmund
p915
aVrayb
p916
aVfamiliar
p917
aVtranquilas
p918
aVagradeceri
p919
aVmas
p920
aVmar
p921
aVnervi
p922
aVmat
p923
aVmay
p924
aVatac
p925
aVkaiss
p926
aVpsicolog
p927
aVmexicanaper
p928
aVsituacion
p929
aVmak
p930
aVsugier
p931
aVmam
p932
aVmal
p933
aVman
p934
aVresequed
p935
aVavanz
p936
aVpractic
p937
aV80
p938
aVjajajajaj
p939
aVfavorit
p940
aVautop
p941
aVesfer
p942
aVinform
p943
aVsi
p944
aVsh
p945
aVso
p946
aVdeposit
p947
aVmoreli
p948
aVregalemosl
p949
aVestudi
p950
aVzhuzh
p951
aVregiomontan
p952
aVavisenm
p953
aVmuchoooo
p954
aVcastrejon
p955
aVequip
p956
aVnombr
p957
aVequit
p958
aVhapp
p959
aVmair
p960
aVpolici
p961
aVtranquiliz
p962
aVnin
p963
aVempac
p964
aVfelicit
p965
aVavis
p966
aVcucarach
p967
aVmillon
p968
aVtweets
p969
aVconoci
p970
aVapen
p971
aVsencilloper
p972
aVnon
p973
aVnoo
p974
aVperdi
p975
aVholaaaaa
p976
aVvuelvasss
p977
aVcomprend
p978
aVnob
p979
aVjent
p980
aVinmujer
p981
aVmadur
p982
aVlocur
p983
aVsubscribers
p984
aVnot
p985
aVayudanadi
p986
aVppl
p987
aVgencian
p988
aVnos
p989
aVinversion
p990
aVreir
p991
aVempres
p992
aVdidn
p993
aVanunci
p994
aVsepar
p995
aVcerebr
p996
aVafloj
p997
aVsuministr
p998
aVcontaminacion
p999
aVpolit
p1000
aVdrog
p1001
aVmamon
p1002
aVpanquequ
p1003
aVcoatetelc
p1004
aVaaaay
p1005
aVeh
p1006
aVindividu
p1007
aVlan
p1008
aVvideoo
p1009
aVunambrind
p1010
aVorganizat
p1011
aVrecibir
p1012
aVando
p1013
aVdesgraci
p1014
aVyear
p1015
aVft
p1016
aVizuc
p1017
aValbum
p1018
aVescuchart
p1019
aVconcienci
p1020
aVguauu
p1021
aVcondicion
p1022
aVbeagl
p1023
aVesolee
p1024
aVinternet
p1025
aVperrij
p1026
aVcorrecr
p1027
aVcorrect
p1028
aVsuic
p1029
aVrencor
p1030
aVlimpi
p1031
aVibas
p1032
aVcarp
p1033
aVbarat
p1034
aVoro
p1035
aVtienez
p1036
aViban
p1037
aVreirm
p1038
aVromant
p1039
aVplen
p1040
aVxochicalc
p1041
aVcarg
p1042
aVdoblaj
p1043
aVfabric
p1044
aVyuy
p1045
aVrecog
p1046
aVbeistegui
p1047
aVvayam
p1048
aVpidiendotodavi
p1049
aVmuchomx
p1050
aVreferent
p1051
aVmos
p1052
aVdijer
p1053
aVrecom
p1054
aVregistrat
p1055
aVpunt
p1056
aVhorgull
p1057
aV2067
p1058
aVthink
p1059
aVprincipi
p1060
aV1000
p1061
aVperiodicaz
p1062
aVsientet
p1063
aVderech
p1064
aVimprovis
p1065
aVtenancing
p1066
aV22
p1067
aVxd
p1068
aVone
p1069
aVpueblit
p1070
aVmonterreeeyporfavor
p1071
aVinsist
p1072
aValmas
p1073
aVcrit
p1074
aVfcpys
p1075
aVconvenz
p1076
aVurib
p1077
aVdemostr
p1078
aVhijosson
p1079
aVplastic
p1080
aVconvenc
p1081
aVrein
p1082
aV1o
p1083
aVherramient
p1084
aVsuert
p1085
aVthat
p1086
aVamooo
p1087
aVcopi
p1088
aVsangron
p1089
aVmexicoestadepi
p1090
aValas
p1091
aVx2
p1092
aVx5
p1093
aV2mil
p1094
aV10
p1095
aVencimal
p1096
aV15
p1097
aV14
p1098
aV16
p1099
aVgalletit
p1100
aV18
p1101
aVtetecal
p1102
aVparej
p1103
aVestresadp
p1104
aVpvta
p1105
aVposit
p1106
aVserl
p1107
aVguapurit
p1108
aVcompadec
p1109
aVseri
p1110
aVand
p1111
aVapoyandot
p1112
aVsan
p1113
aVangel
p1114
aVsal
p1115
aVsac
p1116
aVsab
p1117
aVano
p1118
aVargument
p1119
aVdiabl
p1120
aVdelit
p1121
aVayudari
p1122
aVcuid
p1123
aVmuuuuy
p1124
aVperross
p1125
aVmorrahast
p1126
aVfacult
p1127
aVadvic
p1128
aVabrazart
p1129
aVzon
p1130
aVdestros
p1131
aVdestroz
p1132
aVnoti
p1133
aVfuncion
p1134
aVurge
p1135
aVproductivod
p1136
aVnormal
p1137
aVchingader
p1138
aVapod
p1139
aVtristes
p1140
aVsunglass
p1141
aVpais
p1142
aVfrid
p1143
aVtristez
p1144
aVtrastorn
p1145
aVunans
p1146
aVunidad
p1147
aVpequen
p1148
aVsali
p1149
aVadopt
p1150
aVpores
p1151
aVsalg
p1152
aVpachuc
p1153
aVseguir
p1154
aVcortez
p1155
aVpequ
p1156
aVcorrig
p1157
aVsalu
p1158
aVsalv
p1159
aVpremi
p1160
aVtelpancing
p1161
aVsaludamee
p1162
aVshow
p1163
aVbuenanoch
p1164
aVhaci
p1165
aVcolaps
p1166
aVcomentari
p1167
aVdich
p1168
aVactiv
p1169
aVencierr
p1170
aVintencion
p1171
aVonly
p1172
aVgoing
p1173
aVespos
p1174
aVcoment
p1175
aVcansar
p1176
aVconversacion
p1177
aVhoyy
p1178
aVaverigu
p1179
aVnobl
p1180
aVobii
p1181
aVcumplean
p1182
aVnobt
p1183
aVnececit
p1184
aVimag
p1185
aVasust
p1186
aVpalom
p1187
aVmorelostenecesit
p1188
aVderrepent
p1189
aVlucecit
p1190
aVartist
p1191
aVarom
p1192
aVdesperdici
p1193
aVllor
p1194
aVdirij
p1195
aVllov
p1196
aVapoy
p1197
aVriquisim
p1198
aVentidad
p1199
aVfe
p1200
aVfortalec
p1201
aVtrasport
p1202
aVcorre
p1203
aVconscient
p1204
aVinfinit
p1205
aVfails
p1206
aVestab
p1207
aVtelevis
p1208
aVfederal
p1209
aVsupermerc
p1210
aVcomparacionq
p1211
aVguadalaj
p1212
aVestar
p1213
aVvoluntari
p1214
aVimport
p1215
aVx21
p1216
aVningun
p1217
aVcomp
p1218
aVtur
p1219
aVtus
p1220
aVtuu
p1221
aVnotici
p1222
aVjs
p1223
aVmandart
p1224
aVrutin
p1225
aVternur
p1226
aV20
p1227
aVpartelug
p1228
aVja
p1229
aVreconstru
p1230
aVmant
p1231
aVoverol
p1232
aVembaraz
p1233
aVmany
p1234
aVregion
p1235
aVquier
p1236
aVporfamexicolind
p1237
aVazu
p1238
aVpray
p1239
aVmunicippi
p1240
aVmand
p1241
aVjaaja
p1242
aVtilzapotl
p1243
aVconsej
p1244
aVuber
p1245
aVwhatsapp
p1246
aVsiii
p1247
aVtwit
p1248
aVvrd
p1249
aVpos
p1250
aVpop
p1251
aVcuandl
p1252
aVpon
p1253
aVanti
p1254
aV3000
p1255
aVje
p1256
aVcancel
p1257
aVpod
p1258
aVcoloni
p1259
aVultim
p1260
aVarrepentir
p1261
aVmarc
p1262
aVmarl
p1263
aVmari
p1264
aVreflej
p1265
aVlopez
p1266
aVdsps
p1267
aVinclusiv
p1268
aVtermograf
p1269
aVmarr
p1270
aV1033
p1271
aV500
p1272
aVellamalal
p1273
aVwerevertumorr
p1274
aVsolidariz
p1275
aVauditori
p1276
aVtuvi
p1277
aVcroquet
p1278
aVeduqu
p1279
aVreconoc
p1280
aVyotr
p1281
aVmanu
p1282
aVmuchisim
p1283
aVconformat
p1284
aVcasc
p1285
aVcuracion
p1286
aVpongans
p1287
aVimperm
p1288
aVpobr
p1289
aVpobl
p1290
aVninoscon
p1291
aVbuem
p1292
aVbuen
p1293
aVcoch
p1294
aVvest
p1295
aVpark
p1296
aVcanon
p1297
aVdestin
p1298
aVofrec
p1299
aVeras
p1300
aVayudamx
p1301
aVpap
p1302
aVpar
p1303
aVjorob
p1304
aVpat
p1305
aVsaltill
p1306
aVdoctor
p1307
aVpaz
p1308
aVmedic
p1309
aVhechi
p1310
aVfollowers
p1311
aVdifferenc
p1312
aVacuerd
p1313
aVpordi
p1314
aVcruzamdot
p1315
aVisla
p1316
aVajjajajsksksbs
p1317
aVpal
p1318
aVusarl
p1319
aVpao
p1320
aVstatus
p1321
aVmalinterpret
p1322
aVcel
p1323
aVfaten
p1324
aVquieroo
p1325
aVoig
p1326
aVoie
p1327
aVdemost
p1328
aVsaldr
p1329
aVpersons
p1330
aVcomportens
p1331
aVsatelit
p1332
aVdistribu
p1333
aVmexicotequier
p1334
aVclasif
p1335
aVveas
p1336
aVccp
p1337
aVvean
p1338
aVconoc
p1339
aVmodel
p1340
aVciud
p1341
aVdamnific
p1342
aVpredec
p1343
aVsufiecient
p1344
aVsismo2017
p1345
aVmoney
p1346
aVneon
p1347
aVlucr
p1348
aVuonmoh
p1349
aVviolent
p1350
aVesperandonosasi
p1351
aVaspect
p1352
aVtranquilizat
p1353
aVgdl
p1354
aVocasion
p1355
aVconcentr
p1356
aVverteeeee
p1357
aVtemblor
p1358
aVgebt
p1359
aVemmmm
p1360
aVcivil
p1361
aVwall
p1362
aVletr
p1363
aVtepoztl
p1364
aVmomentum
p1365
aVreal
p1366
aVinspir
p1367
aVgrit
p1368
aVamo
p1369
aVama
p1370
aVmor
p1371
aVrompi
p1372
aVpreguntal
p1373
aVame
p1374
aVmov
p1375
aVseren
p1376
aVregin
p1377
aVmon
p1378
aVmom
p1379
aVdarl
p1380
aVbelanov
p1381
aVlibr
p1382
aVacopi
p1383
aVmod
p1384
aVrescat
p1385
aVmalum
p1386
aVmedellin
p1387
aVpatrici
p1388
aVganit
p1389
aVremasteriz
p1390
aVmanan
p1391
aVshowcit
p1392
aVinter
p1393
aVclar
p1394
aVclas
p1395
aVaudienci
p1396
aV65
p1397
aVpendejuelill
p1398
aVgranit
p1399
aVgrup
p1400
aVnesesit
p1401
aVdeseari
p1402
aVexcelent
p1403
aVviral
p1404
aVdeberi
p1405
aV1850
p1406
aVnooo
p1407
aVdefinit
p1408
aVlegal
p1409
aVaguascalient
p1410
aVexit
p1411
aVtaxquen
p1412
aVluchon
p1413
aVinscribirt
p1414
aVboooom
p1415
aVolor
p1416
aVhabl
p1417
aVhabi
p1418
aVasan
p1419
aVcarranz
p1420
aVocupat
p1421
aVon
p1422
aVusand
p1423
aVlocaliz
p1424
aVok
p1425
aVhigien
p1426
aVtestimoni
p1427
aVof
p1428
aVholaa
p1429
aVfisioterapeut
p1430
aVoc
p1431
aVsorpres
p1432
aVjajajajajaj
p1433
aVbond
p1434
aVop
p1435
aVretroescav
p1436
aVrueg
p1437
aVvendri
p1438
aVreflexion
p1439
aVfichis
p1440
aVsnapchat
p1441
aVnury
p1442
aVustwd
p1443
aVjejejej
p1444
aVayuda
p1445
aVyour
p1446
aVcharli
p1447
aVshampoouu
p1448
aVmart
p1449
aVhueyap
p1450
aVtlahuac
p1451
aVher
p1452
aVaren
p1453
aVlon
p1454
aVliteral
p1455
aVcelul
p1456
aVmonton
p1457
aVoracion
p1458
aVfascin
p1459
aVloq
p1460
aVlov
p1461
aVescapar
p1462
aVjug
p1463
aVretuit
p1464
aVjur
p1465
aVmich
p1466
aVrespet
p1467
aVmunicipi
p1468
aVtripl
p1469
aVtonel
p1470
aVpulg
p1471
aVagres
p1472
aVvanid
p1473
aVapoyand
p1474
aVcarreter
p1475
aVyuyaa
p1476
aVagreg
p1477
aVcolombi
p1478
aVah
p1479
aVpreocupart
p1480
aVam
p1481
aVan
p1482
aVfelic
p1483
aVas
p1484
aVproteg
p1485
aVay
p1486
aVtranquil
p1487
aVmadurez
p1488
aVdoncell
p1489
aVigu
p1490
aVhector
p1491
aVyog
p1492
aVhaganl
p1493
aVmenosqu
p1494
aVsanguine
p1495
aVmarian
p1496
aVamooooo
p1497
aVorient
p1498
aV1111
p1499
aVnimod
p1500
aVbinomi
p1501
aV1112
p1502
aVyutubers
p1503
aVyou
p1504
aVyoo
p1505
aVyuuuuys
p1506
aVimperact
p1507
aVelvir
p1508
aVtiend
p1509
aVvertee
p1510
aVgarz
p1511
aVayudanah
p1512
aVtraemel
p1513
aVyuyissss
p1514
aVadopcion
p1515
aVmueroo
p1516
aVescal
p1517
aVcastr
p1518
aVtepalcingomorel
p1519
aVmixtec
p1520
aVcansador
p1521
aVmast
p1522
aVcdmxensen
p1523
aVrepar
p1524
aVescas
p1525
aVconfianz
p1526
aVoriginal
p1527
aVjaja
p1528
aVrepresent
p1529
aVptm
p1530
aVtkkmmm
p1531
aVconsider
p1532
aVabis
p1533
aVasegurens
p1534
aVhashtag
p1535
aVhermosaa
p1536
aVpreescol
p1537
aVconfund
p1538
aValv
p1539
aVfollow
p1540
aVjajajajjaaj
p1541
aVptr
p1542
aVmuert
p1543
aVtv
p1544
aVtw
p1545
aVinutil
p1546
aVto
p1547
aVretwitteenl
p1548
aVsolicit
p1549
aVcresp
p1550
aVhumild
p1551
aVra
p1552
aVconsum
p1553
aVcomercial
p1554
aVvert
p1555
aVxfabor
p1556
aVfals
p1557
aVfav
p1558
aVuwu
p1559
aVfalt
p1560
aVfak
p1561
aVsonr
p1562
aVjajajam
p1563
aVfan
p1564
aVmexicosomostod
p1565
aVverg
p1566
aVfall
p1567
aVfac
p1568
aVdecidi
p1569
aVpaol
p1570
aVverl
p1571
aVpelit
p1572
aVentiend
p1573
aValma
p1574
aVpeor
p1575
aVtlatenchi
p1576
aVlist
p1577
aVpag
p1578
aVcosit
p1579
aVdecomis
p1580
aVpase
p1581
aVticum
p1582
aVtel
p1583
aVinstagram
p1584
aVten
p1585
aVviern
p1586
aVpostraumat
p1587
aVbonit
p1588
aVbonis
p1589
aVqmo
p1590
aVchingon
p1591
aVcancion
p1592
aVwill
p1593
aVwhat
p1594
aVsub
p1595
aVsum
p1596
aVayudar
p1597
aVcrush
p1598
aVpud
p1599
aVayudan
p1600
aVsur
p1601
aVsup
p1602
aVpublic
p1603
aVcasp
p1604
aViran
p1605
aVchalm
p1606
aVvall
p1607
aVmaquillag
p1608
aVneng
p1609
aVtragedi
p1610
aVtiii
p1611
aVggg
p1612
aVimpprtanteimport
p1613
aVseguidor
p1614
aVdepend
p1615
aVllam
p1616
aVespaci
p1617
aVanenecuilc
p1618
aVbodeg
p1619
aVyuyistrikis
p1620
aVenferm
p1621
aVsocial
p1622
aVfelicidade
p1623
aVbodet
p1624
aVnetaqu
p1625
aVmedicin
p1626
aVvia
p1627
aVvid
p1628
aVvie
p1629
aVenterat
p1630
aVvin
p1631
aVvio
p1632
aVyoutubers
p1633
aVsuced
p1634
aVtlaquiltenang
p1635
aVestocom
p1636
aVviv
p1637
aVfamili
p1638
aVgratuit
p1639
aVarmaron
p1640
aVamooooorrrr
p1641
aVaduen
p1642
aVasta
p1643
aVconocer
p1644
aVaver
p1645
aVacontec
p1646
aVcalient
p1647
aVwuuu
p1648
aVtrist
p1649
aVpobrez
p1650
aVyaho
p1651
aVprecios
p1652
aVvea
p1653
aVatencion
p1654
aVllorr
p1655
aVcer
p1656
aVdios
p1657
aVdifunidr
p1658
aVfronter
p1659
aVsacab
p1660
aVdiganqu
p1661
aVabraz
p1662
aVdes
p1663
aVsucks
p1664
aVhistori
p1665
aVpertenent
p1666
aVdej
p1667
aVdem
p1668
aVden
p1669
aVabandon
p1670
aVdeb
p1671
aVdec
p1672
aVdonacion
p1673
aVnecesari
p1674
aVpont
p1675
aVtuttar
p1676
aVatend
p1677
aVexigent
p1678
aVcompart
p1679
aVponi
p1680
aVwoowwwwww
p1681
aVpong
p1682
aVsismomexico2017
p1683
aVvaleayudenl
p1684
aVamorgraci
p1685
aVpeluch
p1686
aVxfaaa
p1687
aVdivid
p1688
aVhugh
p1689
aVactu
p1690
aVamazon
p1691
aVembaj
p1692
aVjalisc
p1693
aVsiert
p1694
aVacto
p1695
aVoye
p1696
aVchul
p1697
aVpeoreeeee
p1698
aVdionisi
p1699
aVmexicoun
p1700
aValpanoc
p1701
aVcrowdfunding
p1702
aVviend
p1703
aVaaaaw
p1704
aVinstitu
p1705
aVperrit
p1706
aVfa
p1707
aVfb
p1708
aVpas
p1709
aVseman
p1710
aVguadalup
p1711
aVaaaaa
p1712
aVfundacion
p1713
aVgast
p1714
aVbogot
p1715
aVardi
p1716
aVulti
p1717
aVyoan
p1718
aVetiquet
p1719
aVcaus
p1720
aVantibiot
p1721
aVsebasti
p1722
aVyandel
p1723
aVmexican
p1724
aVhelp
p1725
aVparqu
p1726
aVdemasiadooo
p1727
aVfakenews
p1728
aVconfirm
p1729
aVzapat
p1730
aVsoldador
p1731
aVbrig
p1732
aVesquin
p1733
aVadmiir
p1734
aVpenw
p1735
aVstyle
p1736
aVsuscripcion
p1737
aVpens
p1738
aV21
p1739
aValla
p1740
aVbabos
p1741
aVadoptam
p1742
aVsugerent
p1743
aVamaestr
p1744
aVbendig
p1745
aVterritorial
p1746
aVgeneracion
p1747
aVcuart
p1748
aVpropagand
p1749
aVbendit
p1750
aVceg
p1751
aVedad
p1752
aVprayfor
p1753
aVcasit
p1754
aVreconstruccion
p1755
aVmalet
p1756
aVbasur
p1757
aVces
p1758
aVchamuyart
p1759
aVrecompens
p1760
aVoki
p1761
aVoaxac
p1762
aVranchit
p1763
aVchiautl
p1764
aVyt
p1765
aVoper
p1766
aVsubir
p1767
aVmorelosporfavor
p1768
aVpertenec
p1769
aVcercan
p1770
aVtra
p1771
aViguaaaal
p1772
aVdif
p1773
aVcc
p1774
aVbukis
p1775
aVmental
p1776
aVhari
p1777
aVapadrin
p1778
aVtipic
p1779
aVhard
p1780
aVbeib
p1781
aVinoportun
p1782
aVabrelat
p1783
aVverific
p1784
aVenergi
p1785
aVevent
p1786
aVaportacion
p1787
aVshampo
p1788
aVdiosss
p1789
aVdocil
p1790
aVrecib
p1791
aVretwitt
p1792
aVcachorr
p1793
aVizq
p1794
aVchimalhuac
p1795
aVdianit
p1796
aVsocied
p1797
aVtextil
p1798
aVmaquillaj
p1799
aVreci
p1800
aVmanch
p1801
aVrapidisim
p1802
aVpug
p1803
aVmocos
p1804
aVmms
p1805
aVmmm
p1806
aVpsron
p1807
aVsenor
p1808
aVgiveaway
p1809
aVase
p1810
aVput
p1811
aVverifiqu
p1812
aVdiri
p1813
aVacord
p1814
aVpur
p1815
aVpus
p1816
aVcdmx
p1817
aVprecari
p1818
aVmaquinari
p1819
aVfallec
p1820
aValmac
p1821
aVscouts
p1822
aVescaler
p1823
aVservici
p1824
aVpropiedad
p1825
aVfeel
p1826
aVnach
p1827
aVnaci
p1828
aVcomuniqu
p1829
aVfamos
p1830
aVdond
p1831
aVguap
p1832
aVhorribl
p1833
aValrededorguard
p1834
aVequi
p1835
aVgatit
p1836
aVempes
p1837
aVcastaned
p1838
aVechen
p1839
aVamarrarlopor
p1840
aVempez
p1841
aVmujeron
p1842
aVmami
p1843
aVstori
p1844
aVvolcanhuayapam
p1845
aVjej
p1846
aVmolesti
p1847
aVatasc
p1848
aVrazon
p1849
aVecuador
p1850
aVverdader
p1851
aVparc
p1852
aVseptiembr
p1853
aVsegui
p1854
aVarruin
p1855
aVtalvez
p1856
aVdesentendert
p1857
aVmmmm
p1858
aVchihuahu
p1859
aVasco
p1860
aVsegur
p1861
aVjantetelc
p1862
aVlisur
p1863
aVpalomit
p1864
aVmencion
p1865
aVdemuestr
p1866
aVacamp
p1867
aVcolegiorebsam
p1868
aVcontrari
p1869
aVdam
p1870
aVgres
p1871
aVperfum
p1872
aVposibl
p1873
aVviaj
p1874
aVestupid
p1875
aVdebaji
p1876
aVunirn
p1877
aVdand
p1878
aVubic
p1879
aVgemel
p1880
aVriesg
p1881
aVreun
p1882
aVbendicion
p1883
aVfavooor
p1884
aVnecesit
p1885
aVgrandios
p1886
aVunaans
p1887
aVgall
p1888
aVdedic
p1889
aVsarcasticamentesol
p1890
aVimagin
p1891
aVlig
p1892
aVchilepor
p1893
aVlit
p1894
aVpasat
p1895
aVpasar
p1896
aVbuild
p1897
aVmiar
p1898
aVpiens
p1899
aVvieron
p1900
aVredes
p1901
aVnivel
p1902
aVplay
p1903
aVamoooo
p1904
aVamam
p1905
aVbavqjjajajajajajajajajajajajajajajajajajajajajajajajajaaj
p1906
aVpregunt
p1907
aVaman
p1908
aVvictim
p1909
aVcompr
p1910
aVplan
p1911
aVamas
p1912
aVdiferent
p1913
aVplac
p1914
aVanoch
p1915
aVeur1999
p1916
aVreprend
p1917
aVpisote
p1918
aVgraci
p1919
aVteteladelvolc
p1920
aVdifundal
p1921
aVpart
p1922
aVparr
p1923
aVocult
p1924
aVsuficient
p1925
aVpsdtlos
p1926
aVcolegioenriquerebsam
p1927
aVfond
p1928
aVcuernavac
p1929
aVrtt
p1930
aVdetall
p1931
aVpersonit
p1932
aVojo
p1933
aVfind
p1934
aVfing
p1935
aVqued
p1936
aVquej
p1937
aVrespuest
p1938
aVprefier
p1939
aVques
p1940
aVquer
p1941
aVcondon
p1942
aVtraun
p1943
aVluis
p1944
aVestari
p1945
aVconocert
p1946
aVbebecit
p1947
aVmomw
p1948
aVhis
p1949
aVcientif
p1950
aVgratis
p1951
aVequivoc
p1952
aVsalud
p1953
aVsismomex
p1954
aVpadresn
p1955
aVllamart
p1956
aVhic
p1957
aVaaa
p1958
aVhij
p1959
aVhil
p1960
aVfeald
p1961
aVespecif
p1962
aVpreocup
p1963
aVsuarez
p1964
aVlament
p1965
aVmadress
p1966
aVrecoleccion
p1967
aVcre
p1968
aVbellez
p1969
aVcri
p1970
aVbarr
p1971
aVser
p1972
aVreprodusc
p1973
aVsep
p1974
aVderrumb
p1975
aVsec
p1976
aVare
p1977
aVsem
p1978
aVhacert
p1979
aVseh
p1980
aVmovil
p1981
aVimss
p1982
aVwow
p1983
aVconstan
p1984
aVfans
p1985
aVdesepsion
p1986
aVatra
p1987
aVlatin
p1988
aVsoli
p1989
aVnumer
p1990
aVsold
p1991
aVestres
p1992
aVfelicitart
p1993
aVllegaleawhatsappmejor
p1994
aVcompetent
p1995
aVilusion
p1996
aVsolt
p1997
aVbrillant
p1998
aVbienven
p1999
aVdignid
p2000
aValoj
p2001
aVacept
p2002
aVtempor
p2003
aValos
p2004
aVocurri
p2005
aVbuenisim
p2006
aVimaginat
p2007
aVbeli
p2008
aVbell
p2009
aVcamin
p2010
aVoyee
p2011
aVcamil
p2012
aVandas
p2013
aVandar
p2014
aVandal
p2015
aVandan
p2016
aVpopotl
p2017
aVustedess
p2018
aVfeminazis
p2019
aVandab
p2020
aVpr
p2021
aVpu
p2022
aVdud
p2023
aVcivac
p2024
aVsecret
p2025
aVpa
p2026
aVdur
p2027
aVsedesol
p2028
aVfiltr
p2029
aVpm
p2030
aVfirm
p2031
aVejerc
p2032
aV0000
p2033
aV0003
p2034
aVrecibi
p2035
aVgat
p2036
aVgas
p2037
aVqueretar
p2038
aVgan
p2039
aVdeten
p2040
aVtemperament
p2041
aVartemi
p2042
aVrttttt
p2043
aVeduc
p2044
aVmilit
p2045
aVtambi
p2046
aVjujutl
p2047
aVsobr
p2048
aVsolit
p2049
aV31
p2050
aVtetel
p2051
aVcomezon
p2052
aVmoth
p2053
aVcentr
p2054
aVrifatela
p2055
aVcomport
p2056
aVrip
p2057
aVvot
p2058
aVrio
p2059
aVzalap
p2060
aVyuyaaaaa
p2061
aVvos
p2062
aVrif
p2063
aVauxili
p2064
aVric
p2065
aVvoz
p2066
aVria
p2067
aVmarqu
p2068
aVesten
p2069
aVminim
p2070
aVesteb
p2071
aVtqm
p2072
aVacomplet
p2073
aVdars
p2074
aVgrand
p2075
aVestes
p2076
aVkarm
p2077
aVcalent
p2078
aVinsulin
p2079
aVcaes
p2080
aVtoooopppp
p2081
aV500gr
p2082
aVllevenl
p2083
aVdesp
p2084
aVusem
p2085
aVvillareal
p2086
aValert
p2087
aVnoviembr
p2088
aVmoment
p2089
aVnonquier
p2090
aVcaem
p2091
aVapreci
p2092
aVboc
p2093
aVeleg
p2094
aVmerec
p2095
aVjijiji
p2096
aVperson
p2097
aVowww
p2098
aVdespens
p2099
aVporqueri
p2100
aVamp
p2101
aVviver
p2102
aVsam
p2103
aVasesori
p2104
aVdisel
p2105
aVcut
p2106
aVcur
p2107
aVcalor
p2108
aVinmens
p2109
aVellosn
p2110
aVcaraj
p2111
aVhuev
p2112
aVmandam
p2113
aVcun
p2114
aVhidraul
p2115
aVfisic
p2116
aVmujer
p2117
aVcomoayudarmx
p2118
aVayudam
p2119
aVbie
p2120
aVamarr
p2121
aVlanit
p2122
aVvolver
p2123
aVcanij
p2124
aVagradezc
p2125
aVbiv
p2126
aVindependient
p2127
aVtomal
p2128
aVenriquez
p2129
aVpondr
p2130
aVloooool
p2131
aVenxant
p2132
aVdificil
p2133
aVpendej
p2134
aVearthquak
p2135
aVriend
p2136
aVrifado
p2137
aVmejooor
p2138
aVmexc
p2139
aVpremium
p2140
aVissste
p2141
aValiment
p2142
aVqlit
p2143
aVglobal
p2144
aVurgent
p2145
aVvenezuel
p2146
aVbastant
p2147
aVtrendy
p2148
aVsurpris
p2149
aVinstint
p2150
aVadivin
p2151
aVpet
p2152
aVdecision
p2153
aVmedi
p2154
aVper
p2155
aVpes
p2156
aVpel
p2157
aVpen
p2158
aVtendri
p2159
aVped
p2160
aVprof
p2161
aVveterinari
p2162
aVprob
p2163
aVgerani
p2164
aVconstru
p2165
aVbb
p2166
aV300
p2167
aVnesecit
p2168
aVpiojos
p2169
aVrequier
p2170
aVby
p2171
aVsanti
p2172
aVkas
p2173
aVdetenid
p2174
aVmuestr
p2175
aVperd
p2176
aVentreten
p2177
aVido
p2178
aVsilenci
p2179
aVpropuest
p2180
aVchi
p2181
aVfuertemex
p2182
aVide
p2183
aVhahahah
p2184
aVagradecer
p2185
aVida
p2186
aVgrammy
p2187
aVaya
p2188
aValient
p2189
aVsaludam
p2190
aVmartinez
p2191
aVbotell
p2192
aVenfermeri
p2193
aV7u7
p2194
aVpasearson
p2195
aVimagen
p2196
aVcanal
p2197
aVbodoqu
p2198
aVrecostru
p2199
aVdireccion
p2200
aVlengu
p2201
aVhomuncul
p2202
aVparec
p2203
aVpapis
p2204
aVatrap
p2205
aVatras
p2206
aVpabl
p2207
aVdalay
p2208
aVorgull
p2209
aVfes
p2210
aVmsj
p2211
aVcomeni
p2212
aVdulc
p2213
aVtenert
p2214
aVlimpiez
p2215
aVinclu
p2216
aVlind
p2217
aVfotografi
p2218
aVinfo
p2219
aVpolitiz
p2220
aVexa
p2221
aVup
p2222
aVprep
p2223
aVplanet
p2224
aVpres
p2225
aVlindoy
p2226
aVfiabl
p2227
aVsenorit
p2228
aVinfluenci
p2229
aVutiliz
p2230
aVtecnic
p2231
aVcirugi
p2232
aV0011
p2233
aVviany
p2234
aVreconcili
p2235
aVchal
p2236
aVlectur
p2237
aVchav
p2238
aVchau
p2239
aVnac
p2240
aVnad
p2241
aVnah
p2242
aVthanks
p2243
aVcoahuil
p2244
aVtard
p2245
aVayudaa
p2246
aVperfil
p2247
aVtransport
p2248
aVtravies
p2249
aVtech
p2250
aVmoch
p2251
aVensenan
p2252
aVplumon
p2253
aV14000
p2254
aVaser
p2255
aVsismic
p2256
aVproblems
p2257
aVvigil
p2258
aVdimwl
p2259
aVdeserv
p2260
aVago
p2261
aVnacimient
p2262
aVyuyasiempr
p2263
aVejercici
p2264
aVgabytips
p2265
aVexig
p2266
aVustd
p2267
aVcuautl
p2268
aVmuchom
p2269
aVchaaal
p2270
aVmuchoo
p2271
aVagu
p2272
aVneces
p2273
aVhurac
p2274
aVlanz
p2275
aVrebsam
p2276
aVatotonilc
p2277
aVqueteng
p2278
aVunen
p2279
aVqueri
p2280
aVenfad
p2281
aValomejor
p2282
aVretwit
p2283
aVmorel
p2284
aVprim
p2285
aVaplaud
p2286
aVdemasiadoooo
p2287
aV60diasconmex
p2288
aVfotit
p2289
aVyuyissshoy
p2290
aVfatal
p2291
aVsent
p2292
aVobjet
p2293
aVaprend
p2294
aValcab
p2295
aVmiacatl
p2296
aVcostos
p2297
aVemocion
p2298
aVsuscribi
p2299
aVfacebook
p2300
aVpsdt
p2301
aVsencill
p2302
aVdimel
p2303
aVentoy
p2304
aVmagic
p2305
aVfuerzamex
p2306
aVplatic
p2307
aVenseri
p2308
aVmiral
p2309
aViba
p2310
aVmiraa
p2311
aVfortun
p2312
aVrelind
p2313
aVcolchonet
p2314
aVodi
p2315
aVgo
p2316
aVclick
p2317
aVcompar
p2318
aVcomunicacion
p2319
aVantoj
p2320
aVmaravill
p2321
aVluisit
p2322
aVpriv
p2323
aVpiensal
p2324
aVlea
p2325
aVlee
p2326
aVibid
p2327
aVlovearmymex
p2328
aVlei
p2329
aVmorelens
p2330
aVsiguem
p2331
aVasiend
p2332
aVley
p2333
aVpituf
p2334
aVayudalmund
p2335
aVsacal
p2336
aVjalap
p2337
aVtalent
p2338
aVsangr
p2339
aVgent
p2340
aVsufrimient
p2341
aVocacion
p2342
aVoficial
p2343
aVnopaler
p2344
aVcerr
p2345
aVchequ
p2346
aVopinion
p2347
aVhonor
p2348
aVcastig
p2349
aVvolc
p2350
aVwin
p2351
aVapp
p2352
aVmaldit
p2353
aVdisciplin
p2354
aVapu
p2355
aVvolv
p2356
aVsirv
p2357
aVcarin
p2358
aVpaqueteri
p2359
aVcha
p2360
aVolvid
p2361
aVfea
p2362
aVfeo
p2363
aVfel
p2364
aVtuberi
p2365
aVestetoscopi
p2366
aVlevant
p2367
aVapunt
p2368
aVimplic
p2369
aVnoch
p2370
aValrededor
p2371
aVsesion
p2372
aVdelegacion
p2373
aVdejam
p2374
aVdejal
p2375
aVbillet
p2376
aVom
p2377
aVtrail
p2378
aVconnig
p2379
aVpolinesi
p2380
aVchinamec
p2381
aVbaby
p2382
aVconfi
p2383
aVpenit
p2384
aVreproduct
p2385
aVjajaj
p2386
aVanimals
p2387
aVpromet
p2388
aVsabr
p2389
aVentenderrazon
p2390
aVwhen
p2391
aVjojult
p2392
aVsabi
p2393
aVtwiter
p2394
aVcomparacion
p2395
aVzacatec
p2396
aVcontrol
p2397
aVhip
p2398
aVtap
p2399
aVtar
p2400
aVtas
p2401
aVestup
p2402
aVlintern
p2403
aVfronterasinternistaucihemodinamiashockurgenciolog
p2404
aVquierooo
p2405
aVloquill
p2406
aVpreci
p2407
aVtaa
p2408
aVgobierb
p2409
aVtan
p2410
aVestuf
p2411
aVesper
p2412
aVeugenioderbez
p2413
aVanimat
p2414
aV6pm
p2415
aVaprovech
p2416
aVlamp
p2417
aVsig
p2418
aVanimal
p2419
aVcobaem
p2420
aVsii
p2421
aVsin
p2422
aVvibr
p2423
aVentreg
p2424
aVespecial
p2425
aVentren
p2426
aVencwri
p2427
aVcolaboracion
p2428
aVtach
p2429
aVfras
p2430
aVsonor
p2431
aVtier
p2432
aVdesobedient
p2433
aVporfavoor
p2434
aVllev
p2435
aVinspirar
p2436
aVinteres
p2437
aVmochil
p2438
aVterremot
p2439
aV9am
p2440
aVlleg
p2441
aVobrer
p2442
aVllen
p2443
aVconcientiz
p2444
aVocup
p2445
aVmeter
p2446
aVmayones
p2447
aVhondur
p2448
aVcuestion
p2449
aVjimenez
p2450
aVjuandomeduel
p2451
aVgobern
p2452
aVbunch
p2453
aVperfect
p2454
aVspotify
p2455
aVimpid
p2456
aVent
p2457
aVlh
p2458
aVlabor
p2459
aVls
p2460
aV2015
p2461
aVtembl
p2462
aV2017
p2463
aV2016
p2464
aVdaf
p2465
aVdal
p2466
aVmensaj
p2467
aVdan
p2468
aVmaterial
p2469
aVhastamananabesosmuchosbeb
p2470
aVdat
p2471
aVmention
p2472
aVpanchimalc
p2473
aVlindaa
p2474
aVfacilit
p2475
aVdar
p2476
aVdas
p2477
aValcanz
p2478
aVday
p2479
aVdiabet
p2480
aVpreveniresviv
p2481
aVcreart
p2482
aVpaisan
p2483
aVtrat
p2484
aVecatzing
p2485
aVtrav
p2486
aVtist
p2487
aVdesorden
p2488
aVrefier
p2489
aVconcepcion
p2490
aVcocin
p2491
aVdoing
p2492
aV700
p2493
aVproduct
p2494
aVacondicion
p2495
aVajajajaj
p2496
aVsupertragedia14000
p2497
aVmira
p2498
aVapoyemoosahi
p2499
aVdiganm
p2500
aVcolombiaaa
p2501
aVmeti
p2502
aVsexual
p2503
aVsandy
p2504
aVdiganl
p2505
aVsient
p2506
aVdespej
p2507
aVinfluenc
p2508
aVres
p2509
aVreconstruirrepar
p2510
aVconsient
p2511
aV5528785720
p2512
aVret
p2513
aVdemci
p2514
aVcategori
p2515
aVjuzg
p2516
aVred
p2517
aVsonador
p2518
aVsiiiiii
p2519
aVqur
p2520
aVpomeranz
p2521
aVloc
p2522
aVmostr
p2523
aVtorr
p2524
aVchiquit
p2525
aVdmas
p2526
aVpidel
p2527
aVqui
p2528
aVrecolec
p2529
aVetern
p2530
aVriver
p2531
aVconozc
p2532
aVfandub
p2533
aVcaig
p2534
aVfrent
p2535
aVvideojueg
p2536
aVtrabaj
p2537
aVnecesidadesy
p2538
aVorganiz
p2539
aVjudasn
p2540
aVcuent
p2541
aVblogger
p2542
aVfertz
p2543
aVecho
p2544
aVrafit
p2545
aVrafis
p2546
aVenceri
p2547
aVaxochiap
p2548
aVfacil
p2549
aVojit
p2550
aVobvi
p2551
aVcapaz
p2552
aVhambr
p2553
aVtermin
p2554
aVuds
p2555
aVmariand
p2556
aVbulldog
p2557
aVrecient
p2558
aVpalueg
p2559
aVescuch
p2560
aVnecesitamo
p2561
aVcontribu
p2562
aVbeb
p2563
aVraz
p2564
aVletraa
p2565
aVlleval
p2566
aVllevam
p2567
aVbes
p2568
aVsaqu
p2569
aVbet
p2570
aVtommi
p2571
aVsp
p2572
aVbtis74
p2573
aVterribl
p2574
aVmiraaa
p2575
aVdemaci
p2576
aVvaci
p2577
aVcrezc
p2578
aVhijit
p2579
aVmij
p2580
aVmim
p2581
aVmil
p2582
aVmin
p2583
aVespant
p2584
aVmic
p2585
aVmid
p2586
aVmig
p2587
aVretweet
p2588
aVsergi
p2589
aVhefn
p2590
aVmir
p2591
aVdivers
p2592
aVjaim
p2593
aVsism
p2594
aV02
p2595
aVsol
p2596
aVvist
p2597
aVaww
p2598
aVawr
p2599
aVsedal
p2600
aVherman
p2601
aVbren
p2602
aVtaaant
p2603
aVtelefon
p2604
aVjajajja
p2605
aVcaseeeee
p2606
aVunaper
p2607
aVensen
p2608
aVnmig
p2609
aVgest
p2610
aVfrancisc
p2611
aVencontr
p2612
aVnieg
p2613
aVmuy
p2614
aVreinis
p2615
aVciudadan
p2616
aVcamion
p2617
aVbrind
p2618
aVniet
p2619
aVtanbi
p2620
aVcomunicat
p2621
aVmolest
p2622
aVhahahahajajaj
p2623
aVuruguay
p2624
aVrasc
p2625
aVechal
p2626
aVmayori
p2627
aVsomosmex
p2628
aVforev
p2629
aVshould
p2630
aVjan
p2631
aVinund
p2632
aVenvi
p2633
aVjam
p2634
aVjaj
p2635
aVencant
p2636
aVjai
p2637
aVtapi
p2638
aVperdon
p2639
aVplantel
p2640
aVlocal
p2641
aVlindooo
p2642
aVcuern
p2643
aVsuen
p2644
aVsuel
p2645
aVpatrocin
p2646
aVargentin
p2647
aVamiguit
p2648
aVautor
p2649
aVacces
p2650
aVcubr
p2651
aVtendenci
p2652
aVcuerp
p2653
aVira
p2654
aVarteterapi
p2655
aVtuawards
p2656
aVlobq
p2657
aVviej
p2658
aVqu
p2659
aVvien
p2660
aVnomidan
p2661
aVgust
p2662
aVgras
p2663
aVdevast
p2664
aVyoutebers
p2665
aVqe
p2666
aVgran
p2667
aVpasenm
p2668
aVgrab
p2669
aVgrac
p2670
aVtienesgtlt
p2671
aValtern
p2672
aVbtw
p2673
aV050817
p2674
aVyoss
p2675
aVcompartit
p2676
aVcantid
p2677
aVjardin
p2678
aVteni
p2679
aVmiel
p2680
aVcloset
p2681
aVplatan
p2682
aVluz
p2683
aVmied
p2684
aVfavor
p2685
aVlug
p2686
aVtens
p2687
aVcolombian
p2688
aVcomoperr
p2689
aVfundidor
p2690
aVlosient
p2691
aVdesbloqu
p2692
aVjot
p2693
aVamen
p2694
aVmagi
p2695
aV80917
p2696
aVanimalit
p2697
aVopcion
p2698
aVayudaciudadan
p2699
aVgroser
p2700
aVtierr
p2701
aVborrart
p2702
aVetc
p2703
aVwtc
p2704
aVadmir
p2705
aVami
p2706
aVcaers
p2707
aVarticul
p2708
aVinnecesari
p2709
aVvent
p2710
aVci
p2711
aVco
p2712
aVcostumbr
p2713
aVcm
p2714
aVjajajajajajjaj
p2715
aVca
p2716
aVparecer
p2717
aVorit
p2718
aVdoming
p2719
aVcd
p2720
aVvend
p2721
aVveng
p2722
aVvenc
p2723
aVcs
p2724
aVpugs
p2725
aVwilly
p2726
aVquit
p2727
aVviejit
p2728
aVbesit
p2729
aVpin
p2730
aVquis
p2731
aVjajajajajajjajajajajjaj
p2732
aVentend
p2733
aVrumb
p2734
aVrecolect
p2735
aVcient
p2736
aVdefini
p2737
aVfeliz
p2738
aVcuidat
p2739
aVyaa
p2740
aVboti
p2741
aVgtv
p2742
aVencuentr
p2743
aVguant
p2744
aVotc
p2745
aVrabi
p2746
aVcoxn
p2747
aVador
p2748
aVsensei
p2749
aVpresent
p2750
aVcansadit
p2751
aVbye
p2752
aVchamac
p2753
aVeducacion
p2754
aVpanteon
p2755
aVempiec
p2756
aVempiez
p2757
aVyuyit
p2758
aVyuyis
p2759
aVcountry
p2760
aVchalc
p2761
aVgordit
p2762
aVcerciorat
p2763
aVyuyix
p2764
aVporfaaa
p2765
aVve
p2766
aVnom
p2767
aVvi
p2768
aVjajaja
p2769
aVcultur
p2770
aVengan
p2771
aVvs
p2772
aVbelind
p2773
aVrevis
p2774
aVanos
p2775
aVecharl
p2776
aVpis
p2777
aVporteri
p2778
aVrotopl
p2779
aVjuan
p2780
aVproximp
p2781
aVgui
p2782
aVfinanci
p2783
aVcint
p2784
aVprobabl
p2785
aVantepon
p2786
aVball
p2787
aVpein
p2788
aVpelon
p2789
aVcondes
p2790
aVmuuuch
p2791
aVpedaz
p2792
aVtepalcing
p2793
aVkevsh
p2794
aVsigui
p2795
aVactualiz
p2796
aVapoll
p2797
aVarra
p2798
aVarizp
p2799
aVparejit
p2800
aVperrosrescat
p2801
aVonda
p2802
aVsofii
p2803
aVyautepec
p2804
aVabaj
p2805
aVtq
p2806
aVhands
p2807
aVsufr
p2808
aVclinic
p2809
aVracional
p2810
aV40
p2811
aVencontrart
p2812
aVencatari
p2813
aVchiqu
p2814
aVenamoradaa
p2815
aVnnnnmiiijhq
p2816
aVrapid
p2817
aVestupidez
p2818
aVwee
p2819
aVintercambi
p2820
aVvide
p2821
aVyuyacst
p2822
aVdesinform
p2823
aVfal
p2824
aVwey
p2825
aVapoyart
p2826
aVpiel
p2827
aVequivoqu
p2828
aVtlalp
p2829
aVdeseam
p2830
aVpied
p2831
aVcrud
p2832
aVrealid
p2833
aVbenshorts
p2834
aVjajajajja
p2835
aVcruz
p2836
aVdese
p2837
aVdecepcion
p2838
aVmejoor
p2839
aVprest
p2840
aVsofi
p2841
aVaccion
p2842
aVtiembl
p2843
aVimbecil
p2844
aVesq
p2845
aVmartill
p2846
aVexplicart
p2847
aVjajajajajajajaj
p2848
aVzacatepec
p2849
aVzamor
p2850
aVayudel
p2851
aVarmand
p2852
aVmuri
p2853
aVtran
p2854
aVmagnat
p2855
aVtuit
p2856
aVayudenn
p2857
aVayudenm
p2858
aVayudenl
p2859
aVprosig
p2860
aVamooooooo
p2861
aViguald
p2862
aVrecognition
p2863
aVchancr
p2864
aVarnes
p2865
aVest
p2866
aVabridor
p2867
aVjjajajaj
p2868
aVlean
p2869
aVleal
p2870
aVfandoms
p2871
aVleas
p2872
aVtmb
p2873
aVesc
p2874
aVortografi
p2875
aVpuef
p2876
aVpued
p2877
aVirracional
p2878
aVechand
p2879
aVconnaitr
p2880
aVrealment
p2881
aVoyeee
p2882
aVyuyaaa
p2883
aVinolvid
p2884
aVusad
p2885
aValegri
p2886
aVhow
p2887
aVrefugi
p2888
aVhermanit
p2889
aVyya
p2890
aVxalap
p2891
aVestresadit
p2892
aVmonetari
p2893
aVabout
p2894
aVurgen
p2895
aVjustin
p2896
aVextension
p2897
aVhiel
p2898
aVurgee
p2899
aVgsmm
p2900
aVzambran
p2901
aVpue
p2902
aVmetr
p2903
aVtendeci
p2904
aVyuyi
p2905
aVdispon
p2906
aVyuya
p2907
aVchula
p2908
aVguard
p2909
aVcaden
p2910
aV225pm
p2911
aVmerc
p2912
aVparezc
p2913
aVsifilis
p2914
aVbuenis
p2915
aVval
p2916
aVvam
p2917
aVresec
p2918
aVvaa
p2919
aVbanc
p2920
aVjalateacu
p2921
aVbotit
p2922
aVvay
p2923
aVnecsit
p2924
aVmandel
p2925
aVvas
p2926
aVestructur
p2927
aVvat
p2928
aVayudarrrr
p2929
aVdesbloqui
p2930
aVsimplement
p2931
aVxoxocotl
p2932
aVyeah
p2933
aVho
p2934
aVchecal
p2935
aVhg
p2936
aVcibel
p2937
aVinfiel
p2938
aVentendi
p2939
aVprinces
p2940
aVevident
p2941
aVrecorr
p2942
aVvolvi
p2943
aVdelincuent
p2944
aVaajjaj
p2945
aVincompetent
p2946
aVinsomni
p2947
aVmadr
p2948
aVpuert
p2949
aVey
p2950
aVproblem
p2951
aVgeograf
p2952
aVcolegi
p2953
aVjuguet
p2954
aVpil
p2955
aVweyy
p2956
aVevalu
p2957
aVdesvel
p2958
aVporfavorn
p2959
aVpic
p2960
aVpid
p2961
aVpie
p2962
aVdisfrutal
p2963
aVcircul
p2964
aVerik
p2965
aVincreibl
p2966
aVahre
p2967
aVerid
p2968
aVing
p2969
aVtuiter
p2970
aVcuelg
p2971
aVriat
p2972
aVatrapasuen
p2973
aVcontest
p2974
aVmedicost
p2975
aVchocolat
p2976
aVafectadosimpid
p2977
aVingles
p2978
aVjajajajajajaj
p2979
aVfutur
p2980
aVsharit
p2981
aVescasez
p2982
aVtotolap
p2983
aVcomunic
p2984
aVjustsaying
p2985
aVseguirt
p2986
aVperinort
p2987
aVsiganm
p2988
aVchilaquil
p2989
aVmejorr
p2990
aVescuel
p2991
aVhazm
p2992
aVchancl
p2993
aVjunt
p2994
aVpodi
p2995
aVcoordin
p2996
aVsecundari
p2997
aVblogs
p2998
aVrecuper
p2999
aVextran
p3000
aVencantaaa
p3001
aVexperient
p3002
aVvestirt
p3003
aVcoleccion
p3004
aVpodr
p3005
aVsincer
p3006
a.