(lp0
Vpidi
p1
aVdiosit
p2
aVcobij
p3
aVelegi
p4
aVhijoo
p5
aVnegr
p6
aVxochimilc
p7
aVall
p8
aVayud
p9
aVcoloniadelvall
p10
aVmansion
p11
aVescribi
p12
aVansios
p13
aVergu
p14
aVocuituc
p15
aVconst
p16
aVpromocion
p17
aVtweet
p18
aVchequetet
p19
aVigual
p20
aVabre
p21
aVaut
p22
aVregal
p23
aVlizzeth
p24
aVsorry
p25
aVcanel
p26
aVcampech
p27
aVdemasi
p28
aVmanit
p29
aVmadafak
p30
aVfuent
p31
aVhermos
p32
aVcasat
p33
aVjack
p34
aVmedicament
p35
aVneuv
p36
aVtucum
p37
aVpinch
p38
aVgoaaals
p39
aVtuits
p40
aVprobabil
p41
aVverid
p42
aVwerev
p43
aVfarmaceut
p44
aVcodig
p45
aVyuyitat
p46
aVtepetzing
p47
aVaeropuert
p48
aVdirect
p49
aVfuers
p50
aVcuentan
p51
aVnobsabws
p52
aVchec
p53
aVfuert
p54
aVfuerz
p55
aVyeeeyy
p56
aVfech
p57
aVnen
p58
aVnee
p59
aVmuer
p60
aVeco
p61
aVfavooooor
p62
aVnet
p63
aVhazl
p64
aVlohiz
p65
aVmed
p66
aVmeg
p67
aVhero
p68
aVherm
p69
aVxfa
p70
aVpueblamorel
p71
aVmen
p72
aVmej
p73
aVmet
p74
aVching
p75
aVpreparat
p76
aVmes
p77
aVdorm
p78
aVbrigad
p79
aVtodooo
p80
aVmex
p81
aVchilen
p82
aVprecis
p83
aVpermit
p84
aVsismocdmx
p85
aVsentimient
p86
aVesfuerz
p87
aVtremend
p88
aVunim
p89
aVunic
p90
aVinfantil
p91
aVunid
p92
aVbro
p93
aVhahahahah
p94
aVinsta
p95
aVtlaltizap
p96
aVunir
p97
aVshamp
p98
aVtotal
p99
aVdandol
p100
aVunit
p101
aVcalz
p102
aVdescrib
p103
aVviveresnuestr
p104
aVarmy
p105
aVhospital
p106
aVplox
p107
aVinsult
p108
aVdiasconmex
p109
aVcall
p110
aVcalm
p111
aVpuest
p112
aVafectadoslovearmymex
p113
aVpuesy
p114
aVtell
p115
aVarma
p116
aVgriet
p117
aVsenal
p118
aVris
p119
aVrecet
p120
aVgrieg
p121
aVrelaj
p122
aVorganic
p123
aVhola
p124
aVma
p125
aVpierd
p126
aVere
p127
aVmw
p128
aVenorgullec
p129
aVgaruch
p130
aVmy
p131
aVmx
p132
aVsav
p133
aVmanteng
p134
aVnoticier
p135
aVindic
p136
aVmantent
p137
aVmalign
p138
aVpiruj
p139
aVmejor
p140
aVdiari
p141
aVpliss
p142
aVedicion
p143
aVamaneci
p144
aVgigant
p145
aVhog
p146
aVsantand
p147
aVhol
p148
aVconcis
p149
aVcaid
p150
aVhor
p151
aVlaimf
p152
aVrtporf
p153
aVchiquitahub
p154
aVbancari
p155
aVbeauty
p156
aVsolidari
p157
aVlad
p158
aVadrian
p159
aVlaa
p160
aVmadrug
p161
aVtatuaj
p162
aVpalabr
p163
aVgoogl
p164
aVcondolensi
p165
aVorden
p166
aVdomin
p167
aVamig
p168
aVamic
p169
aVamix
p170
aVenter
p171
aVexclus
p172
aVjajajaj
p173
aVverd
p174
aVmaquet
p175
aVdeci
p176
aVconsent
p177
aVfisur
p178
aVorand
p179
aVencerr
p180
aVwue
p181
aVdonart
p182
aVninit
p183
aVpazparaelmund
p184
aVgach
p185
aVpersonal
p186
aVfix
p187
aVcres
p188
aVedomex
p189
aVguadaluth
p190
aVimp
p191
aVjajajajajajajajajaj
p192
aVcrem
p193
aVvalor
p194
aVfij
p195
aVcrec
p196
aVcred
p197
aVtecomalc
p198
aVninoscon
p199
aVproporcion
p200
aVthem
p201
aVanim
p202
aVtwite
p203
aVcubiert
p204
aVempujon
p205
aVtwitt
p206
aVthey
p207
aVconsecuent
p208
aVthes
p209
aVther
p210
aVenamor
p211
aVretuv
p212
aVaport
p213
aVarrob
p214
aVarrog
p215
aVvigent
p216
aVlucy
p217
aValem
p218
aVboni
p219
aValej
p220
aVarroz
p221
aVluch
p222
aVarregl
p223
aVportatil
p224
aVlogr
p225
aVcaer
p226
aVlaboratori
p227
aVenorm
p228
aVallam
p229
aVfeooo
p230
aVveracruz
p231
aVporfavor
p232
aVhogar
p233
aVmatat
p234
aVgod
p235
aVvillalob
p236
aVdiesel
p237
aVaju
p238
aVgustari
p239
aVgob
p240
aVcontent
p241
aVre
p242
aVdaniel
p243
aVdejasel
p244
aVnuncs
p245
aVaja
p246
aVcompanerit
p247
aVdisculp
p248
aVplsss
p249
aVntp
p250
aVinfin
p251
aVentrar
p252
aVntc
p253
aVguapur
p254
aVafect
p255
aVchiap
p256
aVamacuzac
p257
aVdayud
p258
aVoutfits
p259
aVhech
p260
aVpagin
p261
aVaca
p262
aVpoquit
p263
aVintentar
p264
aVfantasi
p265
aVpresion
p266
aVagradec
p267
aVtehuixtl
p268
aVangelit
p269
aVambul
p270
aVhool
p271
aVente
p272
aVawueb
p273
aVpoblan
p274
aVnomin
p275
aVtop
p276
aVtov
p277
aVcalori
p278
aVrond
p279
aVyespornpl
p280
aVrater
p281
aVtom
p282
aVtoc
p283
aVireee
p284
aVtod
p285
aVmexicanosv
p286
aVasegur
p287
aVgym
p288
aVabrir
p289
aVtampoc
p290
aVpuebl
p291
aValberg
p292
aVchef
p293
aVmexicanosfuert
p294
aVtios
p295
aVdistanci
p296
aVaztec
p297
aVtrailersayud
p298
aValent
p299
aVminut
p300
aVabuel
p301
aVraf
p302
aVmini
p303
aVhermosoo
p304
aVfashion
p305
aVfarruk
p306
aVpalaci
p307
aVhicem
p308
aVsenti
p309
aVrat
p310
aVculiac
p311
aVrar
p312
aVrap
p313
aVautobus
p314
aVmierd
p315
aVray
p316
aVescrib
p317
aVmarrulleri
p318
aVignorat
p319
aVtlayacap
p320
aVavion
p321
aVimpotent
p322
aVtransmit
p323
aVnayarit
p324
aVmexicoentiemporeal
p325
aVgto
p326
aVcrei
p327
aVinsum
p328
aVcaliforni
p329
aVcuer
p330
aVteodior
p331
aVdon
p332
aVinigual
p333
aVabastec
p334
aVflor
p335
aVpacienci
p336
aVurgenci
p337
aVdummi
p338
aVcami
p339
aVdoy
p340
aVxo
p341
aVlluev
p342
aVpotosi
p343
aVsumat
p344
aVduerm
p345
aVsaying
p346
aVviralic
p347
aVengendr
p348
aVpatet
p349
aVcabel
p350
aVyuyiit
p351
aVcompartanm
p352
aVdesmadr
p353
aVcomprob
p354
aVbail
p355
aVcabez
p356
aVbezzzz
p357
aVayudal
p358
aVcondulent
p359
aVcabify
p360
aVweon
p361
aVment
p362
aVhrs
p363
aVbolet
p364
aVcarit
p365
aVexplic
p366
aVrich
p367
aVbusc
p368
aValde
p369
aVcamioner
p370
aVdm
p371
aVcamionet
p372
aVdi
p373
aVdf
p374
aVplasm
p375
aVstop
p376
aVorganizacion
p377
aVcongruent
p378
aVposibil
p379
aVrepresentacion
p380
aVjoven
p381
aVhazn
p382
aVreport
p383
aVyoutub
p384
aVtips
p385
aVconvivi
p386
aVbas
p387
aVxdxx
p388
aVguerrer
p389
aVbaumanometr
p390
aVbuscador
p391
aVcomprar
p392
aVxdxd
p393
aVban
p394
aVbaj
p395
aVarrepient
p396
aVrespond
p397
aVmyidol
p398
aVperrun
p399
aVesfichis
p400
aVhabit
p401
aVmatamor
p402
aVjajajajajajajajaj
p403
aVemergent
p404
aVchiclay
p405
aVpadr
p406
aVrespons
p407
aVcabron
p408
aVnub
p409
aVyutub
p410
aVbest
p411
aVnutriolog
p412
aVawar
p413
aVsorprenderi
p414
aVpiojit
p415
aVpetc
p416
aVmur
p417
aVcampan
p418
aVpfff
p419
aVambas
p420
aVbien
p421
aVabuelit
p422
aVconchit
p423
aVmun
p424
aVire
p425
aVconchis
p426
aVmuj
p427
aVetologol
p428
aVwe
p429
aVomg
p430
aVteam
p431
aVhocic
p432
aVjonacatepec
p433
aVgarruch
p434
aVnews
p435
aVbateri
p436
aVpancart
p437
aVestacion
p438
aVcos
p439
aVconch
p440
aVbraz
p441
aVheemos
p442
aVjajajajjsjss
p443
aVjanacatepec
p444
aVcod
p445
aVlogic
p446
aVcumpl
p447
aVuni
p448
aVantoni
p449
aVcom
p450
aVcol
p451
aVbram
p452
aVcon
p453
aVfavoooor
p454
aVmultifamili
p455
aVtont
p456
aViras
p457
aVlluvi
p458
aVayudenmeadifund
p459
aVayal
p460
aVunion
p461
aVculp
p462
aVfri
p463
aVdifund
p464
aVencarg
p465
aVmuch
p466
aVbasic
p467
aVmayuscul
p468
aVcantadaa
p469
aVgabby
p470
aVidol
p471
aVplaz
p472
aVayudart
p473
aVrecomend
p474
aValegr
p475
aVconvivent
p476
aVsiganm
p477
aVreten
p478
aVesteriliz
p479
aVmandal
p480
aVcambi
p481
aVsuav
p482
aVaparent
p483
aVsonrisadisfrutal
p484
aVrecaud
p485
aVair
p486
aVmentir
p487
aVemilian
p488
aVeeeaaa
p489
aVtant
p490
aVmanej
p491
aVwereb
p492
aVcont
p493
aVis
p494
aVemez
p495
aVdescans
p496
aVmision
p497
aVcans
p498
aVconf
p499
aVin
p500
aVquebrantader
p501
aVig
p502
aVplis
p503
aVextranab
p504
aVthings
p505
aVocpxaltepec
p506
aVinformacion
p507
aVchilit
p508
aVbeautyblogg
p509
aVventeeee
p510
aVsimil
p511
aVhahah
p512
aVfotoo
p513
aVrelacion
p514
aVcomplet
p515
aVetcatcing
p516
aValumn
p517
aVmillonari
p518
aVdonat
p519
aVkik
p520
aVevit
p521
aVyop
p522
aVmuuuy
p523
aVinteligent
p524
aValgun
p525
aValgui
p526
aVthretharatori
p527
aVepn
p528
aVcontact
p529
aVespiritu
p530
aVpublicacion
p531
aVthe
p532
aVcarcel
p533
aVpondri
p534
aVyel
p535
aVjust
p536
aVvendr
p537
aVnewton
p538
aVdistint
p539
aVlimitest
p540
aVdestron
p541
aVhuman
p542
aVhallow
p543
aVhah
p544
aVchinga
p545
aVamarg
p546
aVputeri
p547
aVrecuerd
p548
aValborot
p549
aVhac
p550
aVsutilez
p551
aVhag
p552
aVhaz
p553
aVprueb
p554
aVvier
p555
aVhar
p556
aVzaragoz
p557
aVunsol
p558
aVdeacuerd
p559
aVapare
p560
aVpochotal
p561
aVposey
p562
aVoj
p563
aVdonan
p564
aVpereceder
p565
aVapart
p566
aVinste
p567
aVfotoesper
p568
aVamoo
p569
aVmanzanill
p570
aVvis
p571
aVnegat
p572
aVdarn
p573
aVagrad
p574
aVamor
p575
aVenchin
p576
aVmexic
p577
aVjojutl
p578
aVlugar
p579
aVcreem
p580
aVextranart
p581
aVrepart
p582
aVmanual
p583
aVdespiert
p584
aVmaxim
p585
aVacas
p586
aVencantari
p587
aVbandon
p588
aVaparec
p589
aVtutorial
p590
aVfot
p591
aVdecirt
p592
aVcooper
p593
aVfor
p594
aVjueg
p595
aVeverything
p596
aVimpresion
p597
aVubicam
p598
aVjuev
p599
aVoficin
p600
aVparticular
p601
aVpls
p602
aVdescarg
p603
aVdefend
p604
aVconfes
p605
aVobsesion
p606
aVcort
p607
aVple
p608
aVfuerzanex
p609
aVcorr
p610
aVburr
p611
aVpost
p612
aVsuper
p613
aVemoch
p614
aVdesastr
p615
aValexand
p616
aVdiner
p617
aVsensibil
p618
aVamooooooooooooooo
p619
aVescen
p620
aVcoraj
p621
aVtuuuu
p622
aVo
p623
aVopin
p624
aVsept
p625
aVafortunadamdnt
p626
aVestomag
p627
aVaber
p628
aValmacen
p629
aVola
p630
aVferi
p631
aVsoh
p632
aVahh
p633
aVpresenci
p634
aVxhef
p635
aVson
p636
aVahr
p637
aVppr
p638
aVsos
p639
aVferr
p640
aVvuelt
p641
aVvuelv
p642
aVoportun
p643
aVahy
p644
aVacab
p645
aVjajajaajajjajajaaj
p646
aVgir
p647
aVnovi
p648
aVrapel
p649
aVomgggg
p650
aVdisposicion
p651
aVimit
p652
aVformul
p653
aVwaw
p654
aVmusic
p655
aVwuapur
p656
aVescombr
p657
aVform
p658
aVsolidar
p659
aVborr
p660
aVuuuu
p661
aVberg
p662
aVjejej
p663
aVduel
p664
aVmty
p665
aVmts
p666
aVinfeliz
p667
aVespwrar
p668
aVcreyend
p669
aVinfelic
p670
aVayudanl
p671
aVretir
p672
aVadoro
p673
aVpuaj
p674
aVbloqu
p675
aVfurz
p676
aVhistory
p677
aVshid
p678
aVadoptamee
p679
aVmuebl
p680
aVexist
p681
aVni
p682
aVleer
p683
aVayudem
p684
aVayuden
p685
aVno
p686
aVapareci
p687
aVna
p688
aVpanam
p689
aVpanal
p690
aVtip
p691
aVne
p692
aVtir
p693
aVtio
p694
aVtii
p695
aVpresum
p696
aVleem
p697
aVtia
p698
aVconect
p699
aVacumul
p700
aVsonris
p701
aVoremospor
p702
aVdies
p703
aVdenl
p704
aVverguenz
p705
aVhormon
p706
aVperuan
p707
aVcabellud
p708
aVintens
p709
aVconsig
p710
aVdiec
p711
aVdetox
p712
aVobras
p713
aVtrasl
p714
aVtoluc
p715
aVfinnnn
p716
aVsocied
p717
aVignor
p718
aVpior
p719
aVaslo
p720
aVroj
p721
aVrom
p722
aVsegu
p723
aVrob
p724
aVjejejejej
p725
aVinvent
p726
aVrog
p727
aVteextran
p728
aVmenor
p729
aVmorelooosss
p730
aVespecifiqu
p731
aVrop
p732
aVmill
p733
aVros
p734
aVose
p735
aVinfonavitcag
p736
aVjiji
p737
aVvet
p738
aVmanchest
p739
aVver
p740
aVves
p741
aVproxim
p742
aVtetelill
p743
aVafortun
p744
aVcomun
p745
aVguatemal
p746
aVvejez
p747
aVven
p748
aVveo
p749
aVvem
p750
aVvei
p751
aVnomem
p752
aVdepartament
p753
aVtendr
p754
aVpele
p755
aVyadiiiiiii
p756
aVcumpli
p757
aVexact
p758
aVeducal
p759
aVcool
p760
aVdil
p761
aVdim
p762
aVepic
p763
aVtumb
p764
aVdij
p765
aVestad
p766
aVmaltrat
p767
aVenoj
p768
aVdig
p769
aVposts
p770
aVporfis
p771
aVdic
p772
aVporfin
p773
aVrecolecci
p774
aVautografi
p775
aVsignif
p776
aVdir
p777
aVpoblacion
p778
aVregres
p779
aVbe
p780
aVcolect
p781
aVcompens
p782
aVparvovirus
p783
aVporf
p784
aVahorit
p785
aVcost
p786
aVsigu
p787
aVhijadetuputamadr
p788
aVporq
p789
aVpedi
p790
aVport
p791
aVjajajjajajajaj
p792
aVabrac
p793
aVcorazon
p794
aVinspiracion
p795
aVdesesper
p796
aVrequer
p797
aVmatari
p798
aVcursi
p799
aVquedat
p800
aVbn
p801
aVgoez
p802
aVabrazal
p803
aVgener
p804
aVmakeup
p805
aVpurin
p806
aVsonpartedenosotr
p807
aVfocaliz
p808
aVperoooo
p809
aVmald
p810
aVchapultepec
p811
aValto
p812
aVetolog
p813
aVinvit
p814
aVbot
p815
aVbols
p816
aValta
p817
aVlastim
p818
aVbol
p819
aVpendient
p820
aVminecraft
p821
aVrafael
p822
aVciel
p823
aVprefer
p824
aVcabell
p825
aVabast
p826
aVipr
p827
aVjajajajajajajajjajaj
p828
aValedan
p829
aVinstal
p830
aVmonterrey
p831
aVinstastori
p832
aVpren
p833
aVbendec
p834
aVande
p835
aVunivers
p836
aVanda
p837
aVreproduzc
p838
aVimpos
p839
aVpers
p840
aVperr
p841
aVpeticion
p842
aVayy
p843
aVrut
p844
aVperu
p845
aVjajja
p846
aVayu
p847
aVsatan
p848
aVchalleng
p849
aVsuceder
p850
aVjak
p851
aVvous
p852
aVoblig
p853
aVorem
p854
aVpeopl
p855
aVshing
p856
aVimportantisim
p857
aVojal
p858
aVrisaterapi
p859
aVmascot
p860
aVconsigu
p861
aVcas
p862
aVcar
p863
aVprepar
p864
aVreplet
p865
aVcaj
p866
aVcam
p867
aVcomprension
p868
aVcab
p869
aVratit
p870
aVcag
p871
aVirle
p872
aVtuberi
p873
aVedna
p874
aVfeos
p875
aVfuck
p876
aVacorral
p877
aVcritic
p878
aVabort
p879
aVchin
p880
aVgobiern
p881
aVchil
p882
aVdisfrut
p883
aVchic
p884
aVpolipast
p885
aVjuchit
p886
aVchid
p887
aVagradecert
p888
aVmultipl
p889
aVbetoooo
p890
aVjiutepec
p891
aVdesconfi
p892
aVmund
p893
aVrayb
p894
aVfamiliar
p895
aVtranquilas
p896
aVagradeceri
p897
aVmas
p898
aVmar
p899
aVnervi
p900
aVmat
p901
aVmay
p902
aVatac
p903
aVkaiss
p904
aVpsicolog
p905
aVmexicanaper
p906
aVsituacion
p907
aVmak
p908
aVsugier
p909
aVmam
p910
aVmal
p911
aVman
p912
aVresequed
p913
aVavanz
p914
aVpractic
p915
aVjajajajaj
p916
aVfavorit
p917
aVautop
p918
aVesfer
p919
aVinform
p920
aVsi
p921
aVsh
p922
aVso
p923
aVdeposit
p924
aVmoreli
p925
aVregalemosl
p926
aVestudi
p927
aVzhuzh
p928
aVregiomontan
p929
aVavisenm
p930
aVmuchoooo
p931
aVcastrejon
p932
aVequip
p933
aVnombr
p934
aVequit
p935
aVhapp
p936
aVmair
p937
aVpolici
p938
aVtranquiliz
p939
aVnin
p940
aVempac
p941
aVfelicit
p942
aVavis
p943
aVcucarach
p944
aVmillon
p945
aVtweets
p946
aVconoci
p947
aVapen
p948
aVsencilloper
p949
aVnon
p950
aVnoo
p951
aVperdi
p952
aVholaaaaa
p953
aVvuelvasss
p954
aVcomprend
p955
aVnob
p956
aVjent
p957
aVinmujer
p958
aVmadur
p959
aVlocur
p960
aVsubscribers
p961
aVnot
p962
aVayudanadi
p963
aVppl
p964
aVgencian
p965
aVnos
p966
aVinversion
p967
aVreir
p968
aVempres
p969
aVdidn
p970
aVanunci
p971
aVsepar
p972
aVcerebr
p973
aVafloj
p974
aVsuministr
p975
aVcontaminacion
p976
aVpolit
p977
aVdrog
p978
aVmamon
p979
aVpanquequ
p980
aVcoatetelc
p981
aVdionisi
p982
aVeh
p983
aVindividu
p984
aVlan
p985
aVvideoo
p986
aVunambrind
p987
aVorganizat
p988
aVrecibir
p989
aVando
p990
aVdesgraci
p991
aVyear
p992
aVft
p993
aVizuc
p994
aValbum
p995
aVescuchart
p996
aVconcienci
p997
aVguauu
p998
aVcondicion
p999
aVbeagl
p1000
aVesolee
p1001
aVinternet
p1002
aVperrij
p1003
aVcorrecr
p1004
aVcorrect
p1005
aVsuic
p1006
aVrencor
p1007
aVlimpi
p1008
aVibas
p1009
aVcarp
p1010
aVbarat
p1011
aVoro
p1012
aVtienez
p1013
aViban
p1014
aVreirm
p1015
aVromant
p1016
aVplen
p1017
aVxochicalc
p1018
aVcarg
p1019
aVdoblaj
p1020
aVfabric
p1021
aVyuy
p1022
aVrecog
p1023
aVbeistegui
p1024
aVvayam
p1025
aVpidiendotodavi
p1026
aVmuchomx
p1027
aVreferent
p1028
aVmos
p1029
aVdijer
p1030
aVrecom
p1031
aVregistrat
p1032
aVpunt
p1033
aVhorgull
p1034
aVthink
p1035
aVprincipi
p1036
aVfe
p1037
aVperiodicaz
p1038
aVsientet
p1039
aVderech
p1040
aVimprovis
p1041
aVtenancing
p1042
aVxd
p1043
aVone
p1044
aVpueblit
p1045
aVmonterreeeyporfavor
p1046
aVinsist
p1047
aValmas
p1048
aVcrit
p1049
aVfcpys
p1050
aVconvenz
p1051
aVurib
p1052
aVdemostr
p1053
aVhijosson
p1054
aVplastic
p1055
aVconvenc
p1056
aVrein
p1057
aVfriend
p1058
aVherramient
p1059
aVsuert
p1060
aVthat
p1061
aVamooo
p1062
aVcopi
p1063
aVsangron
p1064
aVmexicoestadepi
p1065
aValas
p1066
aVbaja
p1067
aVserv
p1068
aVencimal
p1069
aVgalletit
p1070
aVtetecal
p1071
aVparej
p1072
aVestresadp
p1073
aVpvta
p1074
aVposit
p1075
aVserl
p1076
aVguapurit
p1077
aVcompadec
p1078
aVseri
p1079
aVand
p1080
aVapoyandot
p1081
aVsan
p1082
aVangel
p1083
aVsal
p1084
aVsac
p1085
aVsab
p1086
aVano
p1087
aVargument
p1088
aVdiabl
p1089
aVdelit
p1090
aVayudari
p1091
aVcuid
p1092
aVmuuuuy
p1093
aVperross
p1094
aVmorrahast
p1095
aVfacult
p1096
aVadvic
p1097
aVabrazart
p1098
aVzon
p1099
aVdestros
p1100
aVdestroz
p1101
aVnoti
p1102
aVfuncion
p1103
aVurge
p1104
aVproductivod
p1105
aVnormal
p1106
aVchingader
p1107
aVapod
p1108
aVtristes
p1109
aVsunglass
p1110
aVpais
p1111
aVfrid
p1112
aVtristez
p1113
aVtrastorn
p1114
aVunans
p1115
aVunidad
p1116
aVpequen
p1117
aVsali
p1118
aVadopt
p1119
aVpores
p1120
aVsalg
p1121
aVpachuc
p1122
aVseguir
p1123
aVcortez
p1124
aVpequ
p1125
aVcorrig
p1126
aVsalu
p1127
aVsalv
p1128
aVpremi
p1129
aVtelpancing
p1130
aVsaludamee
p1131
aVshow
p1132
aVbuenanoch
p1133
aVhaci
p1134
aVcolaps
p1135
aVcomentari
p1136
aVdich
p1137
aVactiv
p1138
aVencierr
p1139
aVintencion
p1140
aVonly
p1141
aVgoing
p1142
aVespos
p1143
aVcoment
p1144
aVcansar
p1145
aVconversacion
p1146
aVhoyy
p1147
aVaverigu
p1148
aVnobl
p1149
aVobii
p1150
aVcumplean
p1151
aVnobt
p1152
aVnececit
p1153
aVimag
p1154
aVasust
p1155
aVpalom
p1156
aVmorelostenecesit
p1157
aVderrepent
p1158
aVlucecit
p1159
aVartist
p1160
aVarom
p1161
aVdesperdici
p1162
aVllor
p1163
aVdirij
p1164
aVllov
p1165
aVapoy
p1166
aVriquisim
p1167
aVfortalec
p1168
aVtrasport
p1169
aVcorre
p1170
aVconscient
p1171
aVinfinit
p1172
aVfails
p1173
aVestab
p1174
aVtelevis
p1175
aVfederal
p1176
aVsupermerc
p1177
aVcomparacionq
p1178
aVguadalaj
p1179
aVestar
p1180
aVvoluntari
p1181
aVimport
p1182
aVpubliqu
p1183
aVningun
p1184
aVcomp
p1185
aVtur
p1186
aVtus
p1187
aVtuu
p1188
aVnotici
p1189
aVjs
p1190
aVmandart
p1191
aVrutin
p1192
aVternur
p1193
aVje
p1194
aVpartelug
p1195
aVja
p1196
aVreconstru
p1197
aVmant
p1198
aVoverol
p1199
aVembaraz
p1200
aVmany
p1201
aVregion
p1202
aVquier
p1203
aVporfamexicolind
p1204
aVazu
p1205
aVpray
p1206
aVs
p1207
aVmunicippi
p1208
aVmand
p1209
aVjaaja
p1210
aVtilzapotl
p1211
aVconsej
p1212
aVuber
p1213
aVwhatsapp
p1214
aVsiii
p1215
aVtwit
p1216
aVvrd
p1217
aVpos
p1218
aVpop
p1219
aVcuandl
p1220
aVpon
p1221
aVanti
p1222
aVcancel
p1223
aVpod
p1224
aVcoloni
p1225
aVultim
p1226
aVarrepentir
p1227
aVmarc
p1228
aVmarl
p1229
aVmari
p1230
aVreflej
p1231
aVlopez
p1232
aVdsps
p1233
aVinclusiv
p1234
aVtermograf
p1235
aVmarr
p1236
aVellamalal
p1237
aVwerevertumorr
p1238
aVsolidariz
p1239
aVauditori
p1240
aVtuvi
p1241
aVcroquet
p1242
aVeduqu
p1243
aVreconoc
p1244
aVyotr
p1245
aVmanu
p1246
aVmuchisim
p1247
aVconformat
p1248
aVcasc
p1249
aVcuracion
p1250
aVpongans
p1251
aVimperm
p1252
aVpobr
p1253
aVpobl
p1254
aVunirn
p1255
aVbuem
p1256
aVbuen
p1257
aVcoch
p1258
aVvest
p1259
aVpark
p1260
aVcanon
p1261
aVdestin
p1262
aVofrec
p1263
aVeras
p1264
aVayudamx
p1265
aVtelefon
p1266
aVpap
p1267
aVpar
p1268
aVjorob
p1269
aVpat
p1270
aVsaltill
p1271
aVdoctor
p1272
aVpaz
p1273
aVmedic
p1274
aVhechi
p1275
aVfollowers
p1276
aVdifferenc
p1277
aVacuerd
p1278
aVpordi
p1279
aVcruzamdot
p1280
aVisla
p1281
aVajjajajsksksbs
p1282
aVpal
p1283
aVusarl
p1284
aVpao
p1285
aVstatus
p1286
aVmalinterpret
p1287
aVcel
p1288
aVfaten
p1289
aVquieroo
p1290
aVoig
p1291
aVoie
p1292
aVdemost
p1293
aVsaldr
p1294
aVpersons
p1295
aVcomportens
p1296
aVsatelit
p1297
aVdistribu
p1298
aVmexicotequier
p1299
aVclasif
p1300
aVveas
p1301
aVccp
p1302
aVvean
p1303
aVconoc
p1304
aVmodel
p1305
aVciud
p1306
aVdamnific
p1307
aVpredec
p1308
aVsufiecient
p1309
aVmoney
p1310
aVneon
p1311
aVlucr
p1312
aVuonmoh
p1313
aVviolent
p1314
aVesperandonosasi
p1315
aVaspect
p1316
aVtranquilizat
p1317
aVgdl
p1318
aVocasion
p1319
aVconcentr
p1320
aVverteeeee
p1321
aVtemblor
p1322
aVgebt
p1323
aVemmmm
p1324
aVcivil
p1325
aVwall
p1326
aVletr
p1327
aVtepoztl
p1328
aVmomentum
p1329
aVreal
p1330
aVinspir
p1331
aVgrit
p1332
aVamo
p1333
aVama
p1334
aVmor
p1335
aVrompi
p1336
aVpreguntal
p1337
aVame
p1338
aVmov
p1339
aVseren
p1340
aVregin
p1341
aVmon
p1342
aVmom
p1343
aVdarl
p1344
aVbelanov
p1345
aVlibr
p1346
aVacopi
p1347
aVmod
p1348
aVrescat
p1349
aVmalum
p1350
aVmedellin
p1351
aVpatrici
p1352
aVganit
p1353
aVremasteriz
p1354
aVmanan
p1355
aVshowcit
p1356
aVinter
p1357
aVclar
p1358
aVclas
p1359
aVaudienci
p1360
aVpendejuelill
p1361
aVgranit
p1362
aVgrup
p1363
aVnesesit
p1364
aVdeseari
p1365
aVexcelent
p1366
aVviral
p1367
aVdeberi
p1368
aVfundidor
p1369
aVnooo
p1370
aVdefinit
p1371
aVlegal
p1372
aVaguascalient
p1373
aVexit
p1374
aVtaxquen
p1375
aVluchon
p1376
aVinscribirt
p1377
aVboooom
p1378
aVolor
p1379
aVhabl
p1380
aVhabi
p1381
aVasan
p1382
aVcarranz
p1383
aVocupat
p1384
aVon
p1385
aVusand
p1386
aVlocaliz
p1387
aVok
p1388
aVhigien
p1389
aVtestimoni
p1390
aVof
p1391
aVholaa
p1392
aVfisioterapeut
p1393
aVoc
p1394
aVsorpres
p1395
aVjajajajajaj
p1396
aVbond
p1397
aVop
p1398
aVretroescav
p1399
aVrueg
p1400
aVvendri
p1401
aVreflexion
p1402
aVfichis
p1403
aVsnapchat
p1404
aVnury
p1405
aVustwd
p1406
aVjejejej
p1407
aVayuda
p1408
aVyour
p1409
aVcharli
p1410
aVshampoouu
p1411
aVmart
p1412
aVhueyap
p1413
aVtlahuac
p1414
aVher
p1415
aVaren
p1416
aVlon
p1417
aVliteral
p1418
aVcelul
p1419
aVmonton
p1420
aVoracion
p1421
aVfascin
p1422
aVloq
p1423
aVlov
p1424
aVescapar
p1425
aVjug
p1426
aVretuit
p1427
aVjur
p1428
aVmich
p1429
aVejercici
p1430
aVrespet
p1431
aVmunicipi
p1432
aVtripl
p1433
aVtonel
p1434
aVpulg
p1435
aVagres
p1436
aVvanid
p1437
aVapoyand
p1438
aVcarreter
p1439
aVyuyaa
p1440
aVagreg
p1441
aVcolombi
p1442
aVah
p1443
aVpreocupart
p1444
aVam
p1445
aVan
p1446
aVfelic
p1447
aVas
p1448
aVproteg
p1449
aVay
p1450
aVtranquil
p1451
aVmadurez
p1452
aVdoncell
p1453
aVigu
p1454
aVhector
p1455
aVyog
p1456
aVhaganl
p1457
aVmenosqu
p1458
aVsanguine
p1459
aVmarian
p1460
aVamooooo
p1461
aVorient
p1462
aVnimod
p1463
aVbinomi
p1464
aVyutubers
p1465
aVyou
p1466
aVyoo
p1467
aVyuuuuys
p1468
aVimperact
p1469
aVelvir
p1470
aVtiend
p1471
aVvertee
p1472
aVgarz
p1473
aVayudanah
p1474
aVtraemel
p1475
aVyuyissss
p1476
aVadopcion
p1477
aVmueroo
p1478
aVescal
p1479
aVmensaj
p1480
aVcastr
p1481
aVtepalcingomorel
p1482
aVmixtec
p1483
aVcansador
p1484
aVmast
p1485
aVu
p1486
aVcdmxensen
p1487
aVrepar
p1488
aVescas
p1489
aVconfianz
p1490
aVoriginal
p1491
aVjaja
p1492
aVrepresent
p1493
aVptm
p1494
aVtkkmmm
p1495
aVconsider
p1496
aVabis
p1497
aVasegurens
p1498
aVhashtag
p1499
aVhermosaa
p1500
aVpreescol
p1501
aVconfund
p1502
aValv
p1503
aVfollow
p1504
aVjajajajjaaj
p1505
aVptr
p1506
aVmuert
p1507
aVtv
p1508
aVtw
p1509
aVinutil
p1510
aVto
p1511
aVretwitteenl
p1512
aVsolicit
p1513
aVcresp
p1514
aVhumild
p1515
aVra
p1516
aVconsum
p1517
aVcomercial
p1518
aVvert
p1519
aVxfabor
p1520
aVfals
p1521
aVfav
p1522
aVuwu
p1523
aVfalt
p1524
aVfak
p1525
aVsonr
p1526
aVjajajam
p1527
aVfan
p1528
aVmexicosomostod
p1529
aVverg
p1530
aVfall
p1531
aVfac
p1532
aVdecidi
p1533
aVpaol
p1534
aVverl
p1535
aVpelit
p1536
aVentiend
p1537
aValma
p1538
aVpeor
p1539
aVtlatenchi
p1540
aVlist
p1541
aVpag
p1542
aVcosit
p1543
aVdecomis
p1544
aVpase
p1545
aVticum
p1546
aVtel
p1547
aVinstagram
p1548
aVten
p1549
aVviern
p1550
aVpostraumat
p1551
aVbonit
p1552
aVbonis
p1553
aVqmo
p1554
aVchingon
p1555
aVcancion
p1556
aVwill
p1557
aVwhat
p1558
aVsub
p1559
aVsum
p1560
aVayudar
p1561
aVcrush
p1562
aVpud
p1563
aVayudan
p1564
aVsur
p1565
aVsup
p1566
aVpublic
p1567
aVcasp
p1568
aViran
p1569
aVchalm
p1570
aVvall
p1571
aVmaquillag
p1572
aVneng
p1573
aVtragedi
p1574
aVtiii
p1575
aVggg
p1576
aVimpprtanteimport
p1577
aVseguidor
p1578
aVdepend
p1579
aVllam
p1580
aVespaci
p1581
aVanenecuilc
p1582
aVbodeg
p1583
aVyuyistrikis
p1584
aVenferm
p1585
aVsocial
p1586
aVfelicidade
p1587
aVbodet
p1588
aVnetaqu
p1589
aVmedicin
p1590
aVvia
p1591
aVvid
p1592
aVvie
p1593
aVenterat
p1594
aVvin
p1595
aVvio
p1596
aVyoutubers
p1597
aVsuced
p1598
aVtlaquiltenang
p1599
aVestocom
p1600
aVviv
p1601
aVfamili
p1602
aVgratuit
p1603
aVarmaron
p1604
aVamooooorrrr
p1605
aVaduen
p1606
aVasta
p1607
aVconocer
p1608
aVaver
p1609
aVacontec
p1610
aVcalient
p1611
aVwuuu
p1612
aVtrist
p1613
aVpobrez
p1614
aVyaho
p1615
aVprecios
p1616
aVvea
p1617
aVatencion
p1618
aVllorr
p1619
aVcer
p1620
aVdios
p1621
aVdifunidr
p1622
aVfronter
p1623
aVsacab
p1624
aVdiganqu
p1625
aVabraz
p1626
aVdes
p1627
aVsucks
p1628
aVhistori
p1629
aVpertenent
p1630
aVdej
p1631
aVdem
p1632
aVden
p1633
aVv
p1634
aVabandon
p1635
aVdeb
p1636
aVdec
p1637
aVdonacion
p1638
aVnecesari
p1639
aVpont
p1640
aVtuttar
p1641
aVatend
p1642
aVexigent
p1643
aVcompart
p1644
aVponi
p1645
aVwoowwwwww
p1646
aVpong
p1647
aVatent
p1648
aVvaleayudenl
p1649
aVamorgraci
p1650
aVpeluch
p1651
aVxfaaa
p1652
aVdivid
p1653
aVhugh
p1654
aVactu
p1655
aVamazon
p1656
aVembaj
p1657
aVjalisc
p1658
aVsiert
p1659
aVacto
p1660
aVoye
p1661
aVchul
p1662
aVpeoreeeee
p1663
aVaaaay
p1664
aVmexicoun
p1665
aValpanoc
p1666
aVcrowdfunding
p1667
aVviend
p1668
aVaaaaw
p1669
aVinstitu
p1670
aVperrit
p1671
aVfa
p1672
aVfb
p1673
aVpas
p1674
aVseman
p1675
aVguadalup
p1676
aVaaaaa
p1677
aVfundacion
p1678
aVgast
p1679
aVbogot
p1680
aVardi
p1681
aVulti
p1682
aVyoan
p1683
aVetiquet
p1684
aVcaus
p1685
aVantibiot
p1686
aVsebasti
p1687
aVyandel
p1688
aVmexican
p1689
aVhelp
p1690
aVparqu
p1691
aVdemasiadooo
p1692
aVfakenews
p1693
aVconfirm
p1694
aVzapat
p1695
aVsoldador
p1696
aVbrig
p1697
aVesquin
p1698
aVadmiir
p1699
aVpenw
p1700
aVstyle
p1701
aVsuscripcion
p1702
aVpens
p1703
aValla
p1704
aVbabos
p1705
aVadoptam
p1706
aVsugerent
p1707
aVamaestr
p1708
aVbendig
p1709
aVterritorial
p1710
aVgeneracion
p1711
aVcuart
p1712
aVpropagand
p1713
aVbendit
p1714
aVceg
p1715
aVedad
p1716
aVprayfor
p1717
aVcasit
p1718
aVreconstruccion
p1719
aVmalet
p1720
aVbasur
p1721
aVces
p1722
aVchamuyart
p1723
aVrecompens
p1724
aVoki
p1725
aVoaxac
p1726
aVranchit
p1727
aVchiautl
p1728
aVyt
p1729
aVoper
p1730
aVsubir
p1731
aVmorelosporfavor
p1732
aVpertenec
p1733
aVcercan
p1734
aVtra
p1735
aViguaaaal
p1736
aVdif
p1737
aVcc
p1738
aVbukis
p1739
aVmental
p1740
aVhari
p1741
aVapadrin
p1742
aVtipic
p1743
aVhard
p1744
aVbeib
p1745
aVinoportun
p1746
aVabrelat
p1747
aVverific
p1748
aVenergi
p1749
aVevent
p1750
aVaportacion
p1751
aVshampo
p1752
aVdiosss
p1753
aVdocil
p1754
aVrecib
p1755
aVretwitt
p1756
aVcachorr
p1757
aVizq
p1758
aVchimalhuac
p1759
aVdianit
p1760
aVtextil
p1761
aVmaquillaj
p1762
aVreci
p1763
aVmanch
p1764
aVrapidisim
p1765
aVpug
p1766
aVmocos
p1767
aVmms
p1768
aVmmm
p1769
aVpsron
p1770
aVsenor
p1771
aVgiveaway
p1772
aVase
p1773
aVput
p1774
aVverifiqu
p1775
aVdiri
p1776
aVacord
p1777
aVpur
p1778
aVpus
p1779
aVcdmx
p1780
aVprecari
p1781
aVmaquinari
p1782
aVfallec
p1783
aValmac
p1784
aVscouts
p1785
aVescaler
p1786
aVservici
p1787
aVpropiedad
p1788
aVfeel
p1789
aVnach
p1790
aVnaci
p1791
aVcomuniqu
p1792
aVfamos
p1793
aVdond
p1794
aVguap
p1795
aVhorribl
p1796
aValrededorguard
p1797
aVequi
p1798
aVgatit
p1799
aVempes
p1800
aVcastaned
p1801
aVechen
p1802
aVamarrarlopor
p1803
aVempez
p1804
aVmujeron
p1805
aVmami
p1806
aVstori
p1807
aVvolcanhuayapam
p1808
aVjej
p1809
aVmolesti
p1810
aVatasc
p1811
aVrazon
p1812
aVecuador
p1813
aVverdader
p1814
aVparc
p1815
aVseptiembr
p1816
aVsegui
p1817
aVarruin
p1818
aVtalvez
p1819
aVdesentendert
p1820
aVmmmm
p1821
aVchihuahu
p1822
aVasco
p1823
aVsegur
p1824
aVjantetelc
p1825
aVlisur
p1826
aVpalomit
p1827
aVmencion
p1828
aVdemuestr
p1829
aVacamp
p1830
aVcolegiorebsam
p1831
aVcontrari
p1832
aVgres
p1833
aVperfum
p1834
aVposibl
p1835
aVviaj
p1836
aVestupid
p1837
aVdebaji
p1838
aVdand
p1839
aVubic
p1840
aVgemel
p1841
aVriesg
p1842
aVreun
p1843
aVbendicion
p1844
aVfavooor
p1845
aVnecesit
p1846
aVgrandios
p1847
aVunaans
p1848
aVgall
p1849
aVdedic
p1850
aVsarcasticamentesol
p1851
aVimagin
p1852
aVlig
p1853
aVchilepor
p1854
aVlit
p1855
aVpasat
p1856
aVpasar
p1857
aVbuild
p1858
aVmiar
p1859
aVpiens
p1860
aVvieron
p1861
aVredes
p1862
aVnivel
p1863
aVplay
p1864
aVamoooo
p1865
aVamam
p1866
aVbavqjjajajajajajajajajajajajajajajajajajajajajajajajajaaj
p1867
aVpregunt
p1868
aVaman
p1869
aVvictim
p1870
aVcompr
p1871
aVplan
p1872
aVamas
p1873
aVdiferent
p1874
aVplac
p1875
aVanoch
p1876
aVreprend
p1877
aVpisote
p1878
aVgraci
p1879
aVsaratog
p1880
aVteteladelvolc
p1881
aVdifundal
p1882
aVpart
p1883
aVparr
p1884
aVocult
p1885
aVsuficient
p1886
aVpsdtlos
p1887
aVcolegioenriquerebsam
p1888
aVfond
p1889
aVcuernavac
p1890
aVrtt
p1891
aVdetall
p1892
aVpersonit
p1893
aVojo
p1894
aVfind
p1895
aVfing
p1896
aVqued
p1897
aVquej
p1898
aVrespuest
p1899
aVprefier
p1900
aVques
p1901
aVquer
p1902
aVcondon
p1903
aVtraun
p1904
aVluis
p1905
aVestari
p1906
aVconocert
p1907
aVbebecit
p1908
aVmomw
p1909
aVhis
p1910
aVcientif
p1911
aVgratis
p1912
aVequivoc
p1913
aVsalud
p1914
aVsismomex
p1915
aVpadresn
p1916
aVllamart
p1917
aVhic
p1918
aVaaa
p1919
aVhij
p1920
aVhil
p1921
aVfeald
p1922
aVespecif
p1923
aVpreocup
p1924
aVsuarez
p1925
aVlament
p1926
aVmadress
p1927
aVrecoleccion
p1928
aVcre
p1929
aVbellez
p1930
aVx
p1931
aVcri
p1932
aVbarr
p1933
aVser
p1934
aVreprodusc
p1935
aVsep
p1936
aVderrumb
p1937
aVsec
p1938
aVare
p1939
aVsem
p1940
aVhacert
p1941
aVseh
p1942
aVmovil
p1943
aVimss
p1944
aVwow
p1945
aVconstan
p1946
aVfans
p1947
aVdesepsion
p1948
aVatra
p1949
aVlatin
p1950
aVsoli
p1951
aVnumer
p1952
aVsold
p1953
aVestres
p1954
aVfelicitart
p1955
aVllegaleawhatsappmejor
p1956
aVcompetent
p1957
aVilusion
p1958
aVsolt
p1959
aVbrillant
p1960
aVbienven
p1961
aVdignid
p1962
aValoj
p1963
aVacept
p1964
aVtempor
p1965
aValos
p1966
aVocurri
p1967
aVbuenisim
p1968
aVimaginat
p1969
aVbeli
p1970
aVbell
p1971
aVcamin
p1972
aVoyee
p1973
aVcamil
p1974
aVandas
p1975
aVandar
p1976
aVandal
p1977
aVandan
p1978
aVpopotl
p1979
aVustedess
p1980
aVfeminazis
p1981
aVandab
p1982
aVpr
p1983
aVpu
p1984
aVdud
p1985
aVcivac
p1986
aVsecret
p1987
aVpa
p1988
aVdur
p1989
aVsedesol
p1990
aVfiltr
p1991
aVpm
p1992
aVfirm
p1993
aVejerc
p1994
aVrecibi
p1995
aVgat
p1996
aVgas
p1997
aVqueretar
p1998
aVgan
p1999
aVdeten
p2000
aVtemperament
p2001
aVartemi
p2002
aVrttttt
p2003
aVeduc
p2004
aVmilit
p2005
aVtambi
p2006
aVjujutl
p2007
aVsobr
p2008
aVsolit
p2009
aVtetel
p2010
aVcomezon
p2011
aVmoth
p2012
aVcentr
p2013
aVrifatela
p2014
aVcomport
p2015
aVrip
p2016
aVvot
p2017
aVrio
p2018
aVzalap
p2019
aVyuyaaaaa
p2020
aVvos
p2021
aVrif
p2022
aVauxili
p2023
aVric
p2024
aVvoz
p2025
aVria
p2026
aVmarqu
p2027
aVesten
p2028
aVminim
p2029
aVesteb
p2030
aVtqm
p2031
aVacomplet
p2032
aVdars
p2033
aVgrand
p2034
aVestes
p2035
aVkarm
p2036
aVcalent
p2037
aVinsulin
p2038
aVcaes
p2039
aVtoooopppp
p2040
aVllevenl
p2041
aVdesp
p2042
aVusem
p2043
aVvillareal
p2044
aValert
p2045
aVnoviembr
p2046
aVmoment
p2047
aVnonquier
p2048
aVcaem
p2049
aVapreci
p2050
aVboc
p2051
aVeleg
p2052
aVmerec
p2053
aVjijiji
p2054
aVperson
p2055
aVowww
p2056
aVdespens
p2057
aVporqueri
p2058
aVamp
p2059
aVviver
p2060
aVsam
p2061
aVasesori
p2062
aVdisel
p2063
aVcut
p2064
aVcur
p2065
aVcalor
p2066
aVinmens
p2067
aVellosn
p2068
aVcaraj
p2069
aVhuev
p2070
aVmandam
p2071
aVcun
p2072
aVhidraul
p2073
aVfisic
p2074
aVmujer
p2075
aVcomoayudarmx
p2076
aVayudam
p2077
aVbie
p2078
aVamarr
p2079
aVlanit
p2080
aVvolver
p2081
aVcanij
p2082
aVagradezc
p2083
aVbiv
p2084
aVindependient
p2085
aVtomal
p2086
aVenriquez
p2087
aVpondr
p2088
aVloooool
p2089
aVenxant
p2090
aVdificil
p2091
aVpendej
p2092
aVearthquak
p2093
aVriend
p2094
aVrifado
p2095
aVmejooor
p2096
aVmexc
p2097
aVpremium
p2098
aVissste
p2099
aValiment
p2100
aVqlit
p2101
aVglobal
p2102
aVurgent
p2103
aVvenezuel
p2104
aVbastant
p2105
aVtrendy
p2106
aVsurpris
p2107
aVinstint
p2108
aVadivin
p2109
aVpet
p2110
aVdecision
p2111
aVmedi
p2112
aVper
p2113
aVpes
p2114
aVpel
p2115
aVpen
p2116
aVtendri
p2117
aVped
p2118
aVprof
p2119
aVveterinari
p2120
aVprob
p2121
aVgerani
p2122
aVconstru
p2123
aVbb
p2124
aVnesecit
p2125
aVpiojos
p2126
aVrequier
p2127
aVby
p2128
aVsanti
p2129
aVkas
p2130
aVdetenid
p2131
aVmuestr
p2132
aVperd
p2133
aVentreten
p2134
aVido
p2135
aVsilenci
p2136
aVpropuest
p2137
aVchi
p2138
aVfuertemex
p2139
aVide
p2140
aVhahahah
p2141
aVagradecer
p2142
aVida
p2143
aVgrammy
p2144
aVaya
p2145
aValient
p2146
aVsaludam
p2147
aVmartinez
p2148
aVbotell
p2149
aVenfermeri
p2150
aVpasearson
p2151
aVimagen
p2152
aVcanal
p2153
aVbodoqu
p2154
aVrecostru
p2155
aVdireccion
p2156
aVlengu
p2157
aVhomuncul
p2158
aVparec
p2159
aVpapis
p2160
aVatrap
p2161
aVatras
p2162
aVpabl
p2163
aVdalay
p2164
aVorgull
p2165
aVfes
p2166
aVmsj
p2167
aVcomeni
p2168
aVdulc
p2169
aVtenert
p2170
aVlimpiez
p2171
aVinclu
p2172
aVlind
p2173
aVfotografi
p2174
aVinfo
p2175
aVpolitiz
p2176
aVexa
p2177
aVup
p2178
aVprep
p2179
aVplanet
p2180
aVpres
p2181
aVlindoy
p2182
aVfiabl
p2183
aVsenorit
p2184
aVinfluenci
p2185
aVutiliz
p2186
aVtecnic
p2187
aVcirugi
p2188
aVviany
p2189
aVreconcili
p2190
aVchal
p2191
aVlectur
p2192
aVchav
p2193
aVchau
p2194
aVnac
p2195
aVnad
p2196
aVnah
p2197
aVthanks
p2198
aVcoahuil
p2199
aVtard
p2200
aVayudaa
p2201
aVperfil
p2202
aVtransport
p2203
aVtravies
p2204
aVtech
p2205
aVmoch
p2206
aVensenan
p2207
aVplumon
p2208
aVaser
p2209
aVsismic
p2210
aVproblems
p2211
aVvigil
p2212
aVdimwl
p2213
aVdeserv
p2214
aVago
p2215
aVnacimient
p2216
aVyuyasiempr
p2217
aVe
p2218
aVgabytips
p2219
aVexig
p2220
aVustd
p2221
aVcuautl
p2222
aVmuchom
p2223
aVchaaal
p2224
aVmuchoo
p2225
aVagu
p2226
aVneces
p2227
aVhurac
p2228
aVlanz
p2229
aVrebsam
p2230
aVatotonilc
p2231
aVqueteng
p2232
aVgr
p2233
aVunen
p2234
aVqueri
p2235
aVenfad
p2236
aValomejor
p2237
aVretwit
p2238
aVmorel
p2239
aVprim
p2240
aVaplaud
p2241
aVdemasiadoooo
p2242
aVfotit
p2243
aVyuyissshoy
p2244
aVfatal
p2245
aVsent
p2246
aVobjet
p2247
aVaprend
p2248
aValcab
p2249
aVmiacatl
p2250
aVcostos
p2251
aVemocion
p2252
aVsuscribi
p2253
aVfacebook
p2254
aVpsdt
p2255
aVsencill
p2256
aVdimel
p2257
aVentoy
p2258
aVmagic
p2259
aVfuerzamex
p2260
aVplatic
p2261
aVenseri
p2262
aVmiral
p2263
aViba
p2264
aVmiraa
p2265
aVfortun
p2266
aVrelind
p2267
aVcolchonet
p2268
aVodi
p2269
aVgo
p2270
aVclick
p2271
aVcompar
p2272
aVcomunicacion
p2273
aVantoj
p2274
aVmaravill
p2275
aVluisit
p2276
aVpriv
p2277
aVpiensal
p2278
aVlea
p2279
aVlee
p2280
aVibid
p2281
aVlovearmymex
p2282
aVlei
p2283
aVmorelens
p2284
aVsiguem
p2285
aVasiend
p2286
aVley
p2287
aVpituf
p2288
aVayudalmund
p2289
aVsacal
p2290
aVjalap
p2291
aVtalent
p2292
aVsangr
p2293
aVgent
p2294
aVsufrimient
p2295
aVocacion
p2296
aVoficial
p2297
aVnopaler
p2298
aVcerr
p2299
aVchequ
p2300
aVopinion
p2301
aVhonor
p2302
aVcastig
p2303
aVvolc
p2304
aVwin
p2305
aVapp
p2306
aVmaldit
p2307
aVdisciplin
p2308
aVapu
p2309
aVvolv
p2310
aVsirv
p2311
aVcarin
p2312
aVpaqueteri
p2313
aVcha
p2314
aVolvid
p2315
aVfea
p2316
aVfeo
p2317
aVfel
p2318
aVdiminut
p2319
aVestetoscopi
p2320
aVlevant
p2321
aVapunt
p2322
aVimplic
p2323
aVnoch
p2324
aValrededor
p2325
aVsesion
p2326
aVdelegacion
p2327
aVdejam
p2328
aVdejal
p2329
aVbillet
p2330
aVom
p2331
aVtrail
p2332
aVconnig
p2333
aVpolinesi
p2334
aVchinamec
p2335
aVbaby
p2336
aVconfi
p2337
aVpenit
p2338
aVreproduct
p2339
aVjajaj
p2340
aVanimals
p2341
aVpromet
p2342
aVsabr
p2343
aVentenderrazon
p2344
aVwhen
p2345
aVjojult
p2346
aVsabi
p2347
aVtwiter
p2348
aVcomparacion
p2349
aVzacatec
p2350
aVcontrol
p2351
aVhip
p2352
aVtap
p2353
aVtar
p2354
aVtas
p2355
aVestup
p2356
aVlintern
p2357
aVfronterasinternistaucihemodinamiashockurgenciolog
p2358
aVquierooo
p2359
aVloquill
p2360
aVpreci
p2361
aVtaa
p2362
aVgobierb
p2363
aVtan
p2364
aVestuf
p2365
aVesper
p2366
aVeugenioderbez
p2367
aVanimat
p2368
aVaprovech
p2369
aVlamp
p2370
aVsig
p2371
aVanimal
p2372
aVcobaem
p2373
aVsii
p2374
aVsin
p2375
aVvibr
p2376
aVentreg
p2377
aVespecial
p2378
aVentren
p2379
aVencwri
p2380
aVcolaboracion
p2381
aVtach
p2382
aVfras
p2383
aVsonor
p2384
aVtier
p2385
aVdesobedient
p2386
aVporfavoor
p2387
aVllev
p2388
aVinspirar
p2389
aVinteres
p2390
aVmochil
p2391
aVterremot
p2392
aVlleg
p2393
aVobrer
p2394
aVllen
p2395
aVconcientiz
p2396
aVocup
p2397
aVmeter
p2398
aVmayones
p2399
aVhondur
p2400
aVcuestion
p2401
aVjimenez
p2402
aVjuandomeduel
p2403
aVgobern
p2404
aVbunch
p2405
aVperfect
p2406
aVspotify
p2407
aVimpid
p2408
aVent
p2409
aVlh
p2410
aVlabor
p2411
aVls
p2412
aVrabi
p2413
aVtembl
p2414
aVbye
p2415
aVeur
p2416
aVdaf
p2417
aVdal
p2418
aVdam
p2419
aVdan
p2420
aVmaterial
p2421
aVhastamananabesosmuchosbeb
p2422
aVdat
p2423
aVmention
p2424
aVpanchimalc
p2425
aVlindaa
p2426
aVfacilit
p2427
aVdar
p2428
aVdas
p2429
aValcanz
p2430
aVday
p2431
aVdiabet
p2432
aVpreveniresviv
p2433
aVcreart
p2434
aVpaisan
p2435
aVtrat
p2436
aVecatzing
p2437
aVtrav
p2438
aVtist
p2439
aVdesorden
p2440
aVrefier
p2441
aVconcepcion
p2442
aVcocin
p2443
aVdoing
p2444
aVproduct
p2445
aVacondicion
p2446
aVajajajaj
p2447
aVmira
p2448
aVapoyemoosahi
p2449
aVdiganm
p2450
aVcolombiaaa
p2451
aVmeti
p2452
aVsexual
p2453
aVsandy
p2454
aVdiganl
p2455
aVsient
p2456
aVdespej
p2457
aVinfluenc
p2458
aVres
p2459
aVreconstruirrepar
p2460
aVconsient
p2461
aVret
p2462
aVdemci
p2463
aVcategori
p2464
aVjuzg
p2465
aVred
p2466
aVsonador
p2467
aVsiiiiii
p2468
aVqur
p2469
aVpomeranz
p2470
aVloc
p2471
aVmostr
p2472
aVtorr
p2473
aVchiquit
p2474
aVdmas
p2475
aVpidel
p2476
aVqui
p2477
aVrecolec
p2478
aVetern
p2479
aVriver
p2480
aVconozc
p2481
aVfandub
p2482
aVcaig
p2483
aVfrent
p2484
aVvideojueg
p2485
aVtrabaj
p2486
aVnecesidadesy
p2487
aVorganiz
p2488
aVjudasn
p2489
aVcuent
p2490
aVblogger
p2491
aVfertz
p2492
aVecho
p2493
aVrafit
p2494
aVrafis
p2495
aVenceri
p2496
aVaxochiap
p2497
aVfacil
p2498
aVojit
p2499
aVobvi
p2500
aVcapaz
p2501
aVhambr
p2502
aVtermin
p2503
aVuds
p2504
aVmariand
p2505
aVbulldog
p2506
aVrecient
p2507
aVpalueg
p2508
aVescuch
p2509
aVnecesitamo
p2510
aVcontribu
p2511
aVbeb
p2512
aVraz
p2513
aVletraa
p2514
aVlleval
p2515
aVllevam
p2516
aVbes
p2517
aVsaqu
p2518
aVbet
p2519
aVtommi
p2520
aVsp
p2521
aVterribl
p2522
aVmiraaa
p2523
aVdemaci
p2524
aVvaci
p2525
aVcrezc
p2526
aVhijit
p2527
aVmij
p2528
aVmim
p2529
aVmil
p2530
aVmin
p2531
aVespant
p2532
aVmic
p2533
aVmid
p2534
aVmig
p2535
aVretweet
p2536
aVsergi
p2537
aVhefn
p2538
aVmir
p2539
aVdivers
p2540
aVjaim
p2541
aVsism
p2542
aVsol
p2543
aVvist
p2544
aVaww
p2545
aVawr
p2546
aVsedal
p2547
aVherman
p2548
aVbren
p2549
aVtaaant
p2550
aVbtis
p2551
aVjajajja
p2552
aVcaseeeee
p2553
aVunaper
p2554
aVensen
p2555
aVnmig
p2556
aVgest
p2557
aVfrancisc
p2558
aVencontr
p2559
aVnieg
p2560
aVmuy
p2561
aVreinis
p2562
aVciudadan
p2563
aVcamion
p2564
aVbrind
p2565
aVniet
p2566
aVtanbi
p2567
aVcomunicat
p2568
aVmolest
p2569
aVhahahahajajaj
p2570
aVuruguay
p2571
aVrasc
p2572
aVechal
p2573
aVmayori
p2574
aVsomosmex
p2575
aVforev
p2576
aVshould
p2577
aVjan
p2578
aVinund
p2579
aVenvi
p2580
aVjam
p2581
aVjaj
p2582
aVencant
p2583
aVjai
p2584
aVtapi
p2585
aVperdon
p2586
aVplantel
p2587
aVlocal
p2588
aVlindooo
p2589
aVcuern
p2590
aVsuen
p2591
aVsuel
p2592
aVpatrocin
p2593
aVargentin
p2594
aVamiguit
p2595
aVautor
p2596
aVacces
p2597
aVcubr
p2598
aVtendenci
p2599
aVcuerp
p2600
aVira
p2601
aVarteterapi
p2602
aVtuawards
p2603
aVlobq
p2604
aVviej
p2605
aVqu
p2606
aVvien
p2607
aVnomidan
p2608
aVgust
p2609
aVgras
p2610
aVdevast
p2611
aVyoutebers
p2612
aVqe
p2613
aVgran
p2614
aVpasenm
p2615
aVgrab
p2616
aVgrac
p2617
aVtienesgtlt
p2618
aValtern
p2619
aVbtw
p2620
aVsupertragedi
p2621
aVyoss
p2622
aVcompartit
p2623
aVcantid
p2624
aVjardin
p2625
aVteni
p2626
aVmiel
p2627
aVcloset
p2628
aVplatan
p2629
aVluz
p2630
aVmied
p2631
aVfavor
p2632
aVlug
p2633
aVtens
p2634
aVcolombian
p2635
aVcomoperr
p2636
aVentidad
p2637
aVlosient
p2638
aVdesbloqu
p2639
aVjot
p2640
aVamen
p2641
aVmagi
p2642
aVanimalit
p2643
aVopcion
p2644
aVayudaciudadan
p2645
aVgroser
p2646
aVtierr
p2647
aVborrart
p2648
aVetc
p2649
aVwtc
p2650
aVadmir
p2651
aVami
p2652
aVcaers
p2653
aVarticul
p2654
aVinnecesari
p2655
aVvent
p2656
aVci
p2657
aVco
p2658
aVcostumbr
p2659
aVcm
p2660
aVjajajajajajjaj
p2661
aVca
p2662
aVparecer
p2663
aVorit
p2664
aVdoming
p2665
aVcd
p2666
aVvend
p2667
aVveng
p2668
aVvenc
p2669
aVcs
p2670
aVpugs
p2671
aVwilly
p2672
aVquit
p2673
aVviejit
p2674
aVbesit
p2675
aVpin
p2676
aVquis
p2677
aVjajajajajajjajajajajjaj
p2678
aVentend
p2679
aVrumb
p2680
aVrecolect
p2681
aVcient
p2682
aVdefini
p2683
aVfeliz
p2684
aVcuidat
p2685
aVyaa
p2686
aVboti
p2687
aVgtv
p2688
aVencuentr
p2689
aVguant
p2690
aVotc
p2691
aVcoxn
p2692
aVador
p2693
aVsensei
p2694
aVpresent
p2695
aVcansadit
p2696
aVchamac
p2697
aVeducacion
p2698
aVpanteon
p2699
aVempiec
p2700
aVempiez
p2701
aVyuyit
p2702
aVyuyis
p2703
aVcountry
p2704
aVchalc
p2705
aVgordit
p2706
aVcerciorat
p2707
aVyuyix
p2708
aVporfaaa
p2709
aVve
p2710
aVnom
p2711
aVvi
p2712
aVjajaja
p2713
aVcultur
p2714
aVengan
p2715
aVvs
p2716
aVbelind
p2717
aVrevis
p2718
aVanos
p2719
aVecharl
p2720
aVpis
p2721
aVporteri
p2722
aVrotopl
p2723
aVjuan
p2724
aVproximp
p2725
aVgui
p2726
aVfinanci
p2727
aVcint
p2728
aVprobabl
p2729
aVantepon
p2730
aVball
p2731
aVpein
p2732
aVpelon
p2733
aVcondes
p2734
aVmuuuch
p2735
aVpedaz
p2736
aVtepalcing
p2737
aVkevsh
p2738
aVsigui
p2739
aVactualiz
p2740
aVapoll
p2741
aVoff
p2742
aVarra
p2743
aVarizp
p2744
aVparejit
p2745
aVperrosrescat
p2746
aVonda
p2747
aVsofii
p2748
aVyautepec
p2749
aVabaj
p2750
aVtq
p2751
aVhands
p2752
aVsufr
p2753
aVclinic
p2754
aVracional
p2755
aVencontrart
p2756
aVencatari
p2757
aVchiqu
p2758
aVenamoradaa
p2759
aVnnnnmiiijhq
p2760
aVrapid
p2761
aVestupidez
p2762
aVwee
p2763
aVintercambi
p2764
aVvide
p2765
aVyuyacst
p2766
aVdesinform
p2767
aVfal
p2768
aVwey
p2769
aVapoyart
p2770
aVpiel
p2771
aVequivoqu
p2772
aVtlalp
p2773
aVdeseam
p2774
aVpied
p2775
aVcrud
p2776
aVrealid
p2777
aVbenshorts
p2778
aVjajajajja
p2779
aVcruz
p2780
aVdese
p2781
aVdecepcion
p2782
aVmejoor
p2783
aVprest
p2784
aVsofi
p2785
aVaccion
p2786
aVtiembl
p2787
aVimbecil
p2788
aVesq
p2789
aVmartill
p2790
aVexplicart
p2791
aVjajajajajajajaj
p2792
aVzacatepec
p2793
aVzamor
p2794
aVayudel
p2795
aVarmand
p2796
aVmuri
p2797
aVtran
p2798
aVmagnat
p2799
aVtuit
p2800
aVayudenn
p2801
aVayudenm
p2802
aVayudenl
p2803
aVprosig
p2804
aVamooooooo
p2805
aViguald
p2806
aVrecognition
p2807
aVchancr
p2808
aVarnes
p2809
aVest
p2810
aVabridor
p2811
aVjjajajaj
p2812
aVlean
p2813
aVleal
p2814
aVfandoms
p2815
aVleas
p2816
aVtmb
p2817
aVesc
p2818
aVortografi
p2819
aVpuef
p2820
aVpued
p2821
aVirracional
p2822
aVechand
p2823
aVconnaitr
p2824
aVrealment
p2825
aVoyeee
p2826
aVyuyaaa
p2827
aVinolvid
p2828
aVusad
p2829
aValegri
p2830
aVhow
p2831
aVrefugi
p2832
aVhermanit
p2833
aVyya
p2834
aVxalap
p2835
aVestresadit
p2836
aVmonetari
p2837
aVabout
p2838
aVurgen
p2839
aVjustin
p2840
aVextension
p2841
aVhiel
p2842
aVurgee
p2843
aVgsmm
p2844
aVzambran
p2845
aVpue
p2846
aVmetr
p2847
aVtendeci
p2848
aVyuyi
p2849
aVdispon
p2850
aVyuya
p2851
aVchula
p2852
aVguard
p2853
aVcaden
p2854
aVmerc
p2855
aVparezc
p2856
aVsifilis
p2857
aVbuenis
p2858
aVval
p2859
aVvam
p2860
aVresec
p2861
aVvaa
p2862
aVbanc
p2863
aVjalateacu
p2864
aVbotit
p2865
aVvay
p2866
aVnecsit
p2867
aVmandel
p2868
aVvas
p2869
aVestructur
p2870
aVvat
p2871
aVayudarrrr
p2872
aVdesbloqui
p2873
aVsimplement
p2874
aVxoxocotl
p2875
aVyeah
p2876
aVho
p2877
aVchecal
p2878
aVhg
p2879
aVcibel
p2880
aVinfiel
p2881
aVentendi
p2882
aVprinces
p2883
aVevident
p2884
aVrecorr
p2885
aVvolvi
p2886
aVdelincuent
p2887
aVaajjaj
p2888
aVincompetent
p2889
aVinsomni
p2890
aVmadr
p2891
aVpuert
p2892
aVey
p2893
aVproblem
p2894
aVgeograf
p2895
aVcolegi
p2896
aVjuguet
p2897
aVpil
p2898
aVweyy
p2899
aVevalu
p2900
aVdesvel
p2901
aVporfavorn
p2902
aVpic
p2903
aVpid
p2904
aVpie
p2905
aVdisfrutal
p2906
aVcircul
p2907
aVerik
p2908
aVincreibl
p2909
aVahre
p2910
aVerid
p2911
aVing
p2912
aVtuiter
p2913
aVcuelg
p2914
aVriat
p2915
aVatrapasuen
p2916
aVcontest
p2917
aVmedicost
p2918
aVchocolat
p2919
aVafectadosimpid
p2920
aVingles
p2921
aVjajajajajajaj
p2922
aVfutur
p2923
aVsharit
p2924
aVescasez
p2925
aVtotolap
p2926
aVcomunic
p2927
aVjustsaying
p2928
aVseguirt
p2929
aVperinort
p2930
aVchilaquil
p2931
aVmejorr
p2932
aVescuel
p2933
aVhazm
p2934
aVchancl
p2935
aVjunt
p2936
aVpodi
p2937
aVcoordin
p2938
aVsecundari
p2939
aVblogs
p2940
aVrecuper
p2941
aVextran
p2942
aVencantaaa
p2943
aVexperient
p2944
aVvestirt
p2945
aVcoleccion
p2946
aVpodr
p2947
aVsincer
p2948
a.