(lp0
Vpidi
p1
aVdiosit
p2
aVcobij
p3
aVelegi
p4
aVhijoo
p5
aVnegr
p6
aVxochimilc
p7
aVall
p8
aVayud
p9
aVcoloniadelvall
p10
aVmansion
p11
aVescribi
p12
aVansios
p13
aVergu
p14
aVocuituc
p15
aVconst
p16
aVpromocion
p17
aVtweet
p18
aVchequetet
p19
aVigual
p20
aVabre
p21
aVaut
p22
aVregal
p23
aVlizzeth
p24
aVsorry
p25
aVcanel
p26
aVcampech
p27
aVdemasi
p28
aVmanit
p29
aVmadafak
p30
aVfuent
p31
aVhermos
p32
aVcasat
p33
aVjack
p34
aVmedicament
p35
aVneuv
p36
aVtucum
p37
aVpinch
p38
aVgoaaals
p39
aVtuits
p40
aVprobabil
p41
aVverid
p42
aVwerev
p43
aVfarmaceut
p44
aVcodig
p45
aVyuyitat
p46
aVtepetzing
p47
aVaeropuert
p48
aVdirect
p49
aVfuers
p50
aVcuentan
p51
aVnobsabws
p52
aVchec
p53
aVfuert
p54
aVfuerz
p55
aVyeeeyy
p56
aVfech
p57
aVnen
p58
aVnee
p59
aVmuer
p60
aVeco
p61
aVfavooooor
p62
aVnet
p63
aVhazl
p64
aVlohiz
p65
aVmed
p66
aVmeg
p67
aVhero
p68
aVherm
p69
aVxfa
p70
aVpueblamorel
p71
aVmen
p72
aVmej
p73
aVmet
p74
aVching
p75
aVpreparat
p76
aVmes
p77
aVdorm
p78
aVbrigad
p79
aVtodooo
p80
aVmex
p81
aVchilen
p82
aVprecis
p83
aVpermit
p84
aVsismocdmx
p85
aVsentimient
p86
aVesfuerz
p87
aVtremend
p88
aVunim
p89
aVunic
p90
aVinfantil
p91
aVunid
p92
aVbro
p93
aVhahahahah
p94
aVinsta
p95
aVtlaltizap
p96
aVunir
p97
aVshamp
p98
aVtotal
p99
aVdandol
p100
aVunit
p101
aVcalz
p102
aVdescrib
p103
aVviveresnuestr
p104
aVarmy
p105
aVhospital
p106
aVplox
p107
aVinsult
p108
aVdiasconmex
p109
aVcall
p110
aVcalm
p111
aVpuest
p112
aVafectadoslovearmymex
p113
aVpuesy
p114
aVtell
p115
aVarma
p116
aVgriet
p117
aVsenal
p118
aVris
p119
aVrecet
p120
aVgrieg
p121
aVrelaj
p122
aVorganic
p123
aVhola
p124
aVma
p125
aVpierd
p126
aVere
p127
aVmw
p128
aVenorgullec
p129
aVgaruch
p130
aVmy
p131
aVmx
p132
aVsav
p133
aVmanteng
p134
aVnoticier
p135
aVindic
p136
aVmantent
p137
aVmalign
p138
aVpiruj
p139
aVmejor
p140
aVdiari
p141
aVpliss
p142
aVedicion
p143
aVamaneci
p144
aVgigant
p145
aVhog
p146
aVsantand
p147
aVhol
p148
aVconcis
p149
aVcaid
p150
aVhor
p151
aVlaimf
p152
aVrtporf
p153
aVchiquitahub
p154
aVbancari
p155
aVbeauty
p156
aVsolidari
p157
aVlad
p158
aVadrian
p159
aVlaa
p160
aVmadrug
p161
aVtatuaj
p162
aVpalabr
p163
aVgoogl
p164
aVcondolensi
p165
aVorden
p166
aVdomin
p167
aVamig
p168
aVamic
p169
aVamix
p170
aVenter
p171
aVexclus
p172
aVjajajaj
p173
aVverd
p174
aVmaquet
p175
aVdeci
p176
aVconsent
p177
aVfisur
p178
aVorand
p179
aVencerr
p180
aVwue
p181
aVdonart
p182
aVninit
p183
aVpazparaelmund
p184
aVgach
p185
aVpersonal
p186
aVfix
p187
aVcres
p188
aVedomex
p189
aVguadaluth
p190
aVimp
p191
aVjajajajajajajajajaj
p192
aVcrem
p193
aVvalor
p194
aVfij
p195
aVcrec
p196
aVcred
p197
aVtecomalc
p198
aVninoscon
p199
aVproporcion
p200
aVthem
p201
aVanim
p202
aVtwite
p203
aVcubiert
p204
aVempujon
p205
aVtwitt
p206
aVthey
p207
aVconsecuent
p208
aVthes
p209
aVther
p210
aVenamor
p211
aVretuv
p212
aVaport
p213
aVarrob
p214
aVarrog
p215
aVvigent
p216
aVlucy
p217
aValem
p218
aVboni
p219
aValej
p220
aVarroz
p221
aVluch
p222
aVarregl
p223
aVportatil
p224
aVlogr
p225
aVcaer
p226
aVlaboratori
p227
aVenorm
p228
aVallam
p229
aVfeooo
p230
aVveracruz
p231
aVporfavor
p232
aVhogar
p233
aVmatat
p234
aVgod
p235
aVvillalob
p236
aVdiesel
p237
aVaju
p238
aVgustari
p239
aVgob
p240
aVcontent
p241
aVre
p242
aVdaniel
p243
aVdejasel
p244
aVnuncs
p245
aVaja
p246
aVcompanerit
p247
aVdisculp
p248
aVplsss
p249
aVntp
p250
aVinfin
p251
aVentrar
p252
aVntc
p253
aVguapur
p254
aVafect
p255
aVchiap
p256
aVamacuzac
p257
aVdayud
p258
aVoutfits
p259
aVhech
p260
aVpagin
p261
aVaca
p262
aVpoquit
p263
aVintentar
p264
aVfantasi
p265
aVpresion
p266
aVagradec
p267
aVtehuixtl
p268
aVangelit
p269
aVambul
p270
aVhool
p271
aVente
p272
aVawueb
p273
aVpoblan
p274
aVnomin
p275
aVtop
p276
aVtov
p277
aVcalori
p278
aVrond
p279
aVyespornpl
p280
aVrater
p281
aVtom
p282
aVtoc
p283
aVireee
p284
aVtod
p285
aVmexicanosv
p286
aVasegur
p287
aVgym
p288
aVabrir
p289
aVtampoc
p290
aVpuebl
p291
aValberg
p292
aVchef
p293
aVmexicanosfuert
p294
aVtios
p295
aVdistanci
p296
aVaztec
p297
aVtrailersayud
p298
aValent
p299
aVminut
p300
aVabuel
p301
aVraf
p302
aVmini
p303
aVhermosoo
p304
aVfashion
p305
aVesta
p306
aVfarruk
p307
aVpalaci
p308
aVhicem
p309
aVsenti
p310
aVrat
p311
aVculiac
p312
aVrar
p313
aVrap
p314
aVautobus
p315
aVmierd
p316
aVray
p317
aVescrib
p318
aVmarrulleri
p319
aVignorat
p320
aVtlayacap
p321
aVavion
p322
aVimpotent
p323
aVtransmit
p324
aVnayarit
p325
aVmexicoentiemporeal
p326
aVgto
p327
aVcrei
p328
aVinsum
p329
aVcaliforni
p330
aVcuer
p331
aVteodior
p332
aVdon
p333
aVinigual
p334
aVabastec
p335
aVflor
p336
aVpacienci
p337
aVurgenci
p338
aVdummi
p339
aVcami
p340
aVdoy
p341
aVxo
p342
aVlluev
p343
aVpotosi
p344
aVsumat
p345
aVduerm
p346
aVsaying
p347
aVviralic
p348
aVengendr
p349
aVpatet
p350
aVcabel
p351
aVyuyiit
p352
aVcompartanm
p353
aVdesmadr
p354
aVcomprob
p355
aVbail
p356
aVcabez
p357
aVbezzzz
p358
aVayudal
p359
aVcondulent
p360
aVcabify
p361
aVweon
p362
aVment
p363
aVhrs
p364
aVbolet
p365
aVcarit
p366
aVexplic
p367
aVrich
p368
aVbusc
p369
aValde
p370
aVcamioner
p371
aVdm
p372
aVcamionet
p373
aVdi
p374
aVdf
p375
aVplasm
p376
aVstop
p377
aVorganizacion
p378
aVcongruent
p379
aVposibil
p380
aVrepresentacion
p381
aVjoven
p382
aVhazn
p383
aVreport
p384
aVyoutub
p385
aVtips
p386
aVconvivi
p387
aVbas
p388
aVxdxx
p389
aVguerrer
p390
aVbaumanometr
p391
aVbuscador
p392
aVcomprar
p393
aVxdxd
p394
aVban
p395
aVbaj
p396
aVarrepient
p397
aVrespond
p398
aVmyidol
p399
aVperrun
p400
aVesfichis
p401
aVhabit
p402
aVmatamor
p403
aVjajajajajajajajaj
p404
aVemergent
p405
aVchiclay
p406
aVpadr
p407
aVrespons
p408
aVcabron
p409
aVnub
p410
aVyutub
p411
aVbest
p412
aVnutriolog
p413
aVawar
p414
aVsorprenderi
p415
aVpiojit
p416
aVpetc
p417
aVmur
p418
aVcampan
p419
aVpfff
p420
aVambas
p421
aVbien
p422
aVabuelit
p423
aVconchit
p424
aVmun
p425
aVire
p426
aVconchis
p427
aVmuj
p428
aVetologol
p429
aVwe
p430
aVomg
p431
aVteam
p432
aVhocic
p433
aVjonacatepec
p434
aVgarruch
p435
aVnews
p436
aVbateri
p437
aVpancart
p438
aVestacion
p439
aVcos
p440
aVconch
p441
aVbraz
p442
aVheemos
p443
aVjajajajjsjss
p444
aVjanacatepec
p445
aVcod
p446
aVlogic
p447
aVcumpl
p448
aVuni
p449
aVantoni
p450
aVcom
p451
aVcol
p452
aVbram
p453
aVcon
p454
aVfavoooor
p455
aVmultifamili
p456
aVtont
p457
aViras
p458
aVlluvi
p459
aVayudenmeadifund
p460
aVayal
p461
aVunion
p462
aVculp
p463
aVfri
p464
aVdifund
p465
aVencarg
p466
aVmuch
p467
aVbasic
p468
aVmayuscul
p469
aVcantadaa
p470
aVgabby
p471
aVidol
p472
aVplaz
p473
aVayudart
p474
aVrecomend
p475
aValegr
p476
aVconvivent
p477
aVsiganm
p478
aVreten
p479
aVesteriliz
p480
aVmandal
p481
aVcambi
p482
aVsuav
p483
aVaparent
p484
aVsonrisadisfrutal
p485
aVrecaud
p486
aVair
p487
aVmentir
p488
aVemilian
p489
aVeeeaaa
p490
aVtant
p491
aVmanej
p492
aVwereb
p493
aVcont
p494
aVis
p495
aVemez
p496
aVdescans
p497
aVmision
p498
aVcans
p499
aVconf
p500
aVin
p501
aVquebrantader
p502
aVig
p503
aVplis
p504
aVextranab
p505
aVthings
p506
aVocpxaltepec
p507
aVinformacion
p508
aVchilit
p509
aVbeautyblogg
p510
aVventeeee
p511
aVsimil
p512
aVhahah
p513
aVfotoo
p514
aVrelacion
p515
aVcomplet
p516
aVetcatcing
p517
aValumn
p518
aVmillonari
p519
aVdonat
p520
aVkik
p521
aVevit
p522
aVyop
p523
aVmuuuy
p524
aVinteligent
p525
aValgun
p526
aValgui
p527
aVthretharatori
p528
aVepn
p529
aVcontact
p530
aVespiritu
p531
aVpublicacion
p532
aVthe
p533
aVcarcel
p534
aVpondri
p535
aVyel
p536
aVjust
p537
aVvendr
p538
aVnewton
p539
aVdistint
p540
aVlimitest
p541
aVdestron
p542
aVhuman
p543
aVhallow
p544
aVhah
p545
aVchinga
p546
aVamarg
p547
aVputeri
p548
aVrecuerd
p549
aValborot
p550
aVhac
p551
aVsutilez
p552
aVhag
p553
aVhaz
p554
aVprueb
p555
aVvier
p556
aVhar
p557
aVzaragoz
p558
aVunsol
p559
aVdeacuerd
p560
aVapare
p561
aVpochotal
p562
aVposey
p563
aVoj
p564
aVdonan
p565
aVpereceder
p566
aVapart
p567
aVinste
p568
aVfotoesper
p569
aVamoo
p570
aVmanzanill
p571
aVvis
p572
aVnegat
p573
aVdarn
p574
aVagrad
p575
aVamor
p576
aVenchin
p577
aVmexic
p578
aVjojutl
p579
aVlugar
p580
aVcreem
p581
aVextranart
p582
aVrepart
p583
aVmanual
p584
aVdespiert
p585
aVmaxim
p586
aVacas
p587
aVencantari
p588
aVbandon
p589
aVaparec
p590
aVtutorial
p591
aVfot
p592
aVdecirt
p593
aVcooper
p594
aVfor
p595
aVjueg
p596
aVeverything
p597
aVimpresion
p598
aVubicam
p599
aVjuev
p600
aVoficin
p601
aVparticular
p602
aVpls
p603
aVdescarg
p604
aVdefend
p605
aVconfes
p606
aVobsesion
p607
aVcort
p608
aVple
p609
aVfuerzanex
p610
aVcorr
p611
aVburr
p612
aVpost
p613
aVsuper
p614
aVemoch
p615
aVdesastr
p616
aValexand
p617
aVdiner
p618
aVsensibil
p619
aVamooooooooooooooo
p620
aVescen
p621
aVcoraj
p622
aVtuuuu
p623
aVo
p624
aVopin
p625
aVsept
p626
aVafortunadamdnt
p627
aVestomag
p628
aVaber
p629
aValmacen
p630
aVola
p631
aVferi
p632
aVsoh
p633
aVahh
p634
aVpresenci
p635
aVxhef
p636
aVson
p637
aVahr
p638
aVppr
p639
aVsos
p640
aVferr
p641
aVvuelt
p642
aVvuelv
p643
aVoportun
p644
aVahy
p645
aVacab
p646
aVjajajaajajjajajaaj
p647
aVgir
p648
aVnovi
p649
aVrapel
p650
aVomgggg
p651
aVdisposicion
p652
aVimit
p653
aVformul
p654
aVwaw
p655
aVmusic
p656
aVwuapur
p657
aVescombr
p658
aVform
p659
aVsolidar
p660
aVborr
p661
aVuuuu
p662
aVberg
p663
aVjejej
p664
aVduel
p665
aVmty
p666
aVmts
p667
aVinfeliz
p668
aVespwrar
p669
aVcreyend
p670
aVinfelic
p671
aVayudanl
p672
aVretir
p673
aVadoro
p674
aVpuaj
p675
aVbloqu
p676
aVfurz
p677
aVhistory
p678
aVshid
p679
aVadoptamee
p680
aVmuebl
p681
aVexist
p682
aVni
p683
aVleer
p684
aVayudem
p685
aVayuden
p686
aVno
p687
aVapareci
p688
aVna
p689
aVpanam
p690
aVpanal
p691
aVtip
p692
aVne
p693
aVtir
p694
aVtio
p695
aVtii
p696
aVpresum
p697
aVleem
p698
aVtia
p699
aVconect
p700
aVacumul
p701
aVsonris
p702
aVoremospor
p703
aVdies
p704
aVdenl
p705
aVverguenz
p706
aVhormon
p707
aVperuan
p708
aVcabellud
p709
aVintens
p710
aVconsig
p711
aVdiec
p712
aVdetox
p713
aVobras
p714
aVtrasl
p715
aVtoluc
p716
aVfinnnn
p717
aVsocied
p718
aVignor
p719
aVpior
p720
aVaslo
p721
aVroj
p722
aVrom
p723
aVsegu
p724
aVrob
p725
aVjejejejej
p726
aVinvent
p727
aVrog
p728
aVteextran
p729
aVmenor
p730
aVmorelooosss
p731
aVespecifiqu
p732
aVrop
p733
aVmill
p734
aVros
p735
aVose
p736
aVinfonavitcag
p737
aVjiji
p738
aVvet
p739
aVmanchest
p740
aVver
p741
aVves
p742
aVproxim
p743
aVtetelill
p744
aVafortun
p745
aVcomun
p746
aVguatemal
p747
aVvejez
p748
aVven
p749
aVveo
p750
aVvem
p751
aVvei
p752
aVnomem
p753
aVdepartament
p754
aVtendr
p755
aVpele
p756
aVyadiiiiiii
p757
aVcumpli
p758
aVexact
p759
aVeducal
p760
aVcool
p761
aVdil
p762
aVdim
p763
aVepic
p764
aVtumb
p765
aVdij
p766
aVestad
p767
aVmaltrat
p768
aVenoj
p769
aVdig
p770
aVposts
p771
aVporfis
p772
aVdic
p773
aVporfin
p774
aVrecolecci
p775
aVautografi
p776
aVsignif
p777
aVdir
p778
aVpoblacion
p779
aVregres
p780
aVbe
p781
aVcolect
p782
aVcompens
p783
aVparvovirus
p784
aVporf
p785
aVahorit
p786
aVcost
p787
aVsigu
p788
aVhijadetuputamadr
p789
aVporq
p790
aVpedi
p791
aVport
p792
aVjajajjajajajaj
p793
aVabrac
p794
aVcorazon
p795
aVinspiracion
p796
aVdesesper
p797
aVrequer
p798
aVmatari
p799
aVcursi
p800
aVquedat
p801
aVbn
p802
aVgoez
p803
aVabrazal
p804
aVgener
p805
aVmakeup
p806
aVpurin
p807
aVsonpartedenosotr
p808
aVfocaliz
p809
aVperoooo
p810
aVmald
p811
aVchapultepec
p812
aValto
p813
aVetolog
p814
aVinvit
p815
aVbot
p816
aVbols
p817
aValta
p818
aVlastim
p819
aVbol
p820
aVpendient
p821
aVminecraft
p822
aVrafael
p823
aVciel
p824
aVprefer
p825
aVcabell
p826
aVabast
p827
aVipr
p828
aVjajajajajajajajjajaj
p829
aValedan
p830
aVinstal
p831
aVmonterrey
p832
aVinstastori
p833
aVpren
p834
aVbendec
p835
aVande
p836
aVunivers
p837
aVanda
p838
aVreproduzc
p839
aVimpos
p840
aVpers
p841
aVperr
p842
aVpeticion
p843
aVayy
p844
aVrut
p845
aVperu
p846
aVjajja
p847
aVayu
p848
aVsatan
p849
aVchalleng
p850
aVsuceder
p851
aVjak
p852
aVvous
p853
aVoblig
p854
aVorem
p855
aVpeopl
p856
aVshing
p857
aVimportantisim
p858
aVojal
p859
aVrisaterapi
p860
aVmascot
p861
aVconsigu
p862
aVcas
p863
aVcar
p864
aVprepar
p865
aVreplet
p866
aVcaj
p867
aVcam
p868
aVcomprension
p869
aVcab
p870
aVratit
p871
aVcag
p872
aVirle
p873
aVdiminut
p874
aVedna
p875
aVfeos
p876
aVfuck
p877
aVacorral
p878
aVcritic
p879
aVabort
p880
aVchin
p881
aVgobiern
p882
aVchil
p883
aVdisfrut
p884
aVchic
p885
aVpolipast
p886
aVjuchit
p887
aVchid
p888
aVagradecert
p889
aVmultipl
p890
aVbetoooo
p891
aVjiutepec
p892
aVdesconfi
p893
aVmund
p894
aVrayb
p895
aVfamiliar
p896
aVtranquilas
p897
aVagradeceri
p898
aVmas
p899
aVmar
p900
aVnervi
p901
aVmat
p902
aVmay
p903
aVatac
p904
aVkaiss
p905
aVpsicolog
p906
aVmexicanaper
p907
aVsituacion
p908
aVmak
p909
aVsugier
p910
aVmam
p911
aVmal
p912
aVman
p913
aVresequed
p914
aVavanz
p915
aVpractic
p916
aVjajajajaj
p917
aVfavorit
p918
aVautop
p919
aVesfer
p920
aVinform
p921
aVsi
p922
aVsh
p923
aVso
p924
aVdeposit
p925
aVmoreli
p926
aVregalemosl
p927
aVestudi
p928
aVzhuzh
p929
aVregiomontan
p930
aVavisenm
p931
aVmuchoooo
p932
aVcastrejon
p933
aVequip
p934
aVnombr
p935
aVequit
p936
aVhapp
p937
aVmair
p938
aVpolici
p939
aVtranquiliz
p940
aVnin
p941
aVempac
p942
aVfelicit
p943
aVavis
p944
aVcucarach
p945
aVmillon
p946
aVtweets
p947
aVconoci
p948
aVapen
p949
aVsencilloper
p950
aVnon
p951
aVnoo
p952
aVperdi
p953
aVholaaaaa
p954
aVvuelvasss
p955
aVcomprend
p956
aVnob
p957
aVjent
p958
aVinmujer
p959
aVmadur
p960
aVlocur
p961
aVsubscribers
p962
aVnot
p963
aVayudanadi
p964
aVppl
p965
aVgencian
p966
aVnos
p967
aVinversion
p968
aVreir
p969
aVempres
p970
aVdidn
p971
aVanunci
p972
aVsepar
p973
aVcerebr
p974
aVafloj
p975
aVsuministr
p976
aVcontaminacion
p977
aVpolit
p978
aVdrog
p979
aVmamon
p980
aVpanquequ
p981
aVcoatetelc
p982
aVdionisi
p983
aVeh
p984
aVindividu
p985
aVlan
p986
aVvideoo
p987
aVunambrind
p988
aVorganizat
p989
aVrecibir
p990
aVando
p991
aVdesgraci
p992
aVyear
p993
aVft
p994
aVizuc
p995
aValbum
p996
aVescuchart
p997
aVconcienci
p998
aVguauu
p999
aVcondicion
p1000
aVbeagl
p1001
aVesolee
p1002
aVinternet
p1003
aVperrij
p1004
aVcorrecr
p1005
aVcorrect
p1006
aVsuic
p1007
aVrencor
p1008
aVlimpi
p1009
aVibas
p1010
aVcarp
p1011
aVbarat
p1012
aVoro
p1013
aVtienez
p1014
aViban
p1015
aVreirm
p1016
aVromant
p1017
aVplen
p1018
aVxochicalc
p1019
aVcarg
p1020
aVdoblaj
p1021
aVfabric
p1022
aVyuy
p1023
aVrecog
p1024
aVbeistegui
p1025
aVvayam
p1026
aVpidiendotodavi
p1027
aVmuchomx
p1028
aVreferent
p1029
aVmos
p1030
aVdijer
p1031
aVrecom
p1032
aVregistrat
p1033
aVpunt
p1034
aVhorgull
p1035
aVthink
p1036
aVprincipi
p1037
aVfe
p1038
aVperiodicaz
p1039
aVsientet
p1040
aVderech
p1041
aVimprovis
p1042
aVtenancing
p1043
aVxd
p1044
aVone
p1045
aVpueblit
p1046
aVmonterreeeyporfavor
p1047
aVinsist
p1048
aValmas
p1049
aVcrit
p1050
aVfcpys
p1051
aVconvenz
p1052
aVurib
p1053
aVdemostr
p1054
aVhijosson
p1055
aVplastic
p1056
aVconvenc
p1057
aVrein
p1058
aVfriend
p1059
aVherramient
p1060
aVsuert
p1061
aVthat
p1062
aVamooo
p1063
aVcopi
p1064
aVsangron
p1065
aVmexicoestadepi
p1066
aValas
p1067
aVbaja
p1068
aVserv
p1069
aVencimal
p1070
aVgalletit
p1071
aVtetecal
p1072
aVparej
p1073
aVestresadp
p1074
aVpvta
p1075
aVposit
p1076
aVserl
p1077
aVguapurit
p1078
aVcompadec
p1079
aVseri
p1080
aVand
p1081
aVapoyandot
p1082
aVsan
p1083
aVangel
p1084
aVsal
p1085
aVsac
p1086
aVsab
p1087
aVano
p1088
aVargument
p1089
aVdiabl
p1090
aVdelit
p1091
aVayudari
p1092
aVcuid
p1093
aVmuuuuy
p1094
aVperross
p1095
aVmorrahast
p1096
aVfacult
p1097
aVadvic
p1098
aVabrazart
p1099
aVzon
p1100
aVdestros
p1101
aVdestroz
p1102
aVnoti
p1103
aVfuncion
p1104
aVurge
p1105
aVproductivod
p1106
aVnormal
p1107
aVchingader
p1108
aVapod
p1109
aVtristes
p1110
aVsunglass
p1111
aVpais
p1112
aVfrid
p1113
aVtristez
p1114
aVtrastorn
p1115
aVunans
p1116
aVunidad
p1117
aVpequen
p1118
aVsali
p1119
aVadopt
p1120
aVpores
p1121
aVsalg
p1122
aVpachuc
p1123
aVseguir
p1124
aVcortez
p1125
aVpequ
p1126
aVcorrig
p1127
aVsalu
p1128
aVsalv
p1129
aVpremi
p1130
aVtelpancing
p1131
aVsaludamee
p1132
aVshow
p1133
aVbuenanoch
p1134
aVhaci
p1135
aVcolaps
p1136
aVcomentari
p1137
aVdich
p1138
aVactiv
p1139
aVencierr
p1140
aVintencion
p1141
aVonly
p1142
aVgoing
p1143
aVespos
p1144
aVcoment
p1145
aVcansar
p1146
aVconversacion
p1147
aVhoyy
p1148
aVaverigu
p1149
aVnobl
p1150
aVobii
p1151
aVcumplean
p1152
aVnobt
p1153
aVnececit
p1154
aVimag
p1155
aVasust
p1156
aVpalom
p1157
aVmorelostenecesit
p1158
aVderrepent
p1159
aVlucecit
p1160
aVartist
p1161
aVarom
p1162
aVdesperdici
p1163
aVllor
p1164
aVdirij
p1165
aVllov
p1166
aVapoy
p1167
aVriquisim
p1168
aVfortalec
p1169
aVtrasport
p1170
aVcorre
p1171
aVconscient
p1172
aVinfinit
p1173
aVfails
p1174
aVestab
p1175
aVtelevis
p1176
aVfederal
p1177
aVsupermerc
p1178
aVcomparacionq
p1179
aVguadalaj
p1180
aVestar
p1181
aVvoluntari
p1182
aVimport
p1183
aVpubliqu
p1184
aVningun
p1185
aVcomp
p1186
aVtur
p1187
aVtus
p1188
aVtuu
p1189
aVnotici
p1190
aVjs
p1191
aVmandart
p1192
aVrutin
p1193
aVternur
p1194
aVje
p1195
aVpartelug
p1196
aVja
p1197
aVreconstru
p1198
aVmant
p1199
aVoverol
p1200
aVembaraz
p1201
aVmany
p1202
aVregion
p1203
aVquier
p1204
aVporfamexicolind
p1205
aVazu
p1206
aVpray
p1207
aVs
p1208
aVmunicippi
p1209
aVmand
p1210
aVjaaja
p1211
aVtilzapotl
p1212
aVconsej
p1213
aVuber
p1214
aVwhatsapp
p1215
aVsiii
p1216
aVtwit
p1217
aVvrd
p1218
aVpos
p1219
aVpop
p1220
aVcuandl
p1221
aVpon
p1222
aVanti
p1223
aVcancel
p1224
aVpod
p1225
aVcoloni
p1226
aVultim
p1227
aVarrepentir
p1228
aVmarc
p1229
aVmarl
p1230
aVmari
p1231
aVreflej
p1232
aVlopez
p1233
aVdsps
p1234
aVinclusiv
p1235
aVtermograf
p1236
aVmarr
p1237
aVellamalal
p1238
aVwerevertumorr
p1239
aVsolidariz
p1240
aVauditori
p1241
aVtuvi
p1242
aVcroquet
p1243
aVeduqu
p1244
aVreconoc
p1245
aVyotr
p1246
aVmanu
p1247
aVmuchisim
p1248
aVconformat
p1249
aVcasc
p1250
aVcuracion
p1251
aVpongans
p1252
aVimperm
p1253
aVpobr
p1254
aVpobl
p1255
aVunirn
p1256
aVbuem
p1257
aVbuen
p1258
aVcoch
p1259
aVvest
p1260
aVpark
p1261
aVcanon
p1262
aVdestin
p1263
aVofrec
p1264
aVeras
p1265
aVayudamx
p1266
aVtelefon
p1267
aVpap
p1268
aVpar
p1269
aVjorob
p1270
aVpat
p1271
aVsaltill
p1272
aVdoctor
p1273
aVpaz
p1274
aVmedic
p1275
aVhechi
p1276
aVfollowers
p1277
aVdifferenc
p1278
aVacuerd
p1279
aVpordi
p1280
aVcruzamdot
p1281
aVisla
p1282
aVajjajajsksksbs
p1283
aVpal
p1284
aVusarl
p1285
aVpao
p1286
aVstatus
p1287
aVmalinterpret
p1288
aVcel
p1289
aVfaten
p1290
aVquieroo
p1291
aVoig
p1292
aVoie
p1293
aVdemost
p1294
aVsaldr
p1295
aVpersons
p1296
aVcomportens
p1297
aVsatelit
p1298
aVdistribu
p1299
aVmexicotequier
p1300
aVclasif
p1301
aVveas
p1302
aVccp
p1303
aVvean
p1304
aVconoc
p1305
aVmodel
p1306
aVciud
p1307
aVdamnific
p1308
aVpredec
p1309
aVsufiecient
p1310
aVmoney
p1311
aVneon
p1312
aVlucr
p1313
aVuonmoh
p1314
aVviolent
p1315
aVesperandonosasi
p1316
aVaspect
p1317
aVtranquilizat
p1318
aVgdl
p1319
aVocasion
p1320
aVconcentr
p1321
aVverteeeee
p1322
aVtemblor
p1323
aVgebt
p1324
aVemmmm
p1325
aVcivil
p1326
aVwall
p1327
aVletr
p1328
aVtepoztl
p1329
aVmomentum
p1330
aVreal
p1331
aVinspir
p1332
aVgrit
p1333
aVamo
p1334
aVama
p1335
aVmor
p1336
aVrompi
p1337
aVpreguntal
p1338
aVame
p1339
aVmov
p1340
aVseren
p1341
aVregin
p1342
aVmon
p1343
aVmom
p1344
aVdarl
p1345
aVbelanov
p1346
aVlibr
p1347
aVacopi
p1348
aVmod
p1349
aVrescat
p1350
aVmalum
p1351
aVmedellin
p1352
aVpatrici
p1353
aVganit
p1354
aVremasteriz
p1355
aVmanan
p1356
aVshowcit
p1357
aVinter
p1358
aVclar
p1359
aVclas
p1360
aVaudienci
p1361
aVpendejuelill
p1362
aVgranit
p1363
aVgrup
p1364
aVnesesit
p1365
aVdeseari
p1366
aVexcelent
p1367
aVviral
p1368
aVdeberi
p1369
aVfundidor
p1370
aVnooo
p1371
aVdefinit
p1372
aVlegal
p1373
aVaguascalient
p1374
aVexit
p1375
aVtaxquen
p1376
aVluchon
p1377
aVinscribirt
p1378
aVboooom
p1379
aVolor
p1380
aVhabl
p1381
aVhabi
p1382
aVasan
p1383
aVcarranz
p1384
aVocupat
p1385
aVon
p1386
aVusand
p1387
aVlocaliz
p1388
aVok
p1389
aVhigien
p1390
aVtestimoni
p1391
aVof
p1392
aVholaa
p1393
aVfisioterapeut
p1394
aVoc
p1395
aVsorpres
p1396
aVjajajajajaj
p1397
aVbond
p1398
aVop
p1399
aVretroescav
p1400
aVrueg
p1401
aVvendri
p1402
aVreflexion
p1403
aVfichis
p1404
aVsnapchat
p1405
aVnury
p1406
aVustwd
p1407
aVjejejej
p1408
aVayuda
p1409
aVyour
p1410
aVcharli
p1411
aVshampoouu
p1412
aVmart
p1413
aVhueyap
p1414
aVtlahuac
p1415
aVher
p1416
aVaren
p1417
aVlon
p1418
aVliteral
p1419
aVcelul
p1420
aVmonton
p1421
aVoracion
p1422
aVfascin
p1423
aVloq
p1424
aVlov
p1425
aVescapar
p1426
aVjug
p1427
aVretuit
p1428
aVjur
p1429
aVmich
p1430
aVejercici
p1431
aVrespet
p1432
aVmunicipi
p1433
aVtripl
p1434
aVtonel
p1435
aVpulg
p1436
aVagres
p1437
aVvanid
p1438
aVapoyand
p1439
aVcarreter
p1440
aVyuyaa
p1441
aVagreg
p1442
aVcolombi
p1443
aVah
p1444
aVpreocupart
p1445
aVam
p1446
aVan
p1447
aVfelic
p1448
aVas
p1449
aVproteg
p1450
aVay
p1451
aVtranquil
p1452
aVmadurez
p1453
aVdoncell
p1454
aVigu
p1455
aVhector
p1456
aVyog
p1457
aVhaganl
p1458
aVmenosqu
p1459
aVsanguine
p1460
aVmarian
p1461
aVamooooo
p1462
aVorient
p1463
aVnimod
p1464
aVbinomi
p1465
aVyutubers
p1466
aVyou
p1467
aVyoo
p1468
aVyuuuuys
p1469
aVimperact
p1470
aVelvir
p1471
aVtiend
p1472
aVvertee
p1473
aVgarz
p1474
aVayudanah
p1475
aVtraemel
p1476
aVyuyissss
p1477
aVadopcion
p1478
aVmueroo
p1479
aVescal
p1480
aVmensaj
p1481
aVcastr
p1482
aVtepalcingomorel
p1483
aVmixtec
p1484
aVcansador
p1485
aVmast
p1486
aVu
p1487
aVcdmxensen
p1488
aVrepar
p1489
aVescas
p1490
aVconfianz
p1491
aVoriginal
p1492
aVjaja
p1493
aVrepresent
p1494
aVptm
p1495
aVtkkmmm
p1496
aVconsider
p1497
aVabis
p1498
aVasegurens
p1499
aVhashtag
p1500
aVhermosaa
p1501
aVpreescol
p1502
aVconfund
p1503
aValv
p1504
aVfollow
p1505
aVjajajajjaaj
p1506
aVptr
p1507
aVmuert
p1508
aVtv
p1509
aVtw
p1510
aVinutil
p1511
aVto
p1512
aVretwitteenl
p1513
aVsolicit
p1514
aVcresp
p1515
aVhumild
p1516
aVra
p1517
aVconsum
p1518
aVcomercial
p1519
aVvert
p1520
aVxfabor
p1521
aVfals
p1522
aVfav
p1523
aVuwu
p1524
aVfalt
p1525
aVfak
p1526
aVsonr
p1527
aVjajajam
p1528
aVfan
p1529
aVmexicosomostod
p1530
aVverg
p1531
aVfall
p1532
aVfac
p1533
aVdecidi
p1534
aVpaol
p1535
aVverl
p1536
aVpelit
p1537
aVentiend
p1538
aValma
p1539
aVpeor
p1540
aVtlatenchi
p1541
aVlist
p1542
aVpag
p1543
aVcosit
p1544
aVdecomis
p1545
aVpase
p1546
aVticum
p1547
aVtel
p1548
aVinstagram
p1549
aVten
p1550
aVviern
p1551
aVpostraumat
p1552
aVbonit
p1553
aVbonis
p1554
aVqmo
p1555
aVchingon
p1556
aVcancion
p1557
aVwill
p1558
aVwhat
p1559
aVsub
p1560
aVsum
p1561
aVayudar
p1562
aVcrush
p1563
aVpud
p1564
aVayudan
p1565
aVsur
p1566
aVsup
p1567
aVpublic
p1568
aVcasp
p1569
aViran
p1570
aVchalm
p1571
aVvall
p1572
aVmaquillag
p1573
aVneng
p1574
aVtragedi
p1575
aVtiii
p1576
aVggg
p1577
aVimpprtanteimport
p1578
aVseguidor
p1579
aVdepend
p1580
aVllam
p1581
aVespaci
p1582
aVanenecuilc
p1583
aVbodeg
p1584
aVyuyistrikis
p1585
aVenferm
p1586
aVsocial
p1587
aVfelicidade
p1588
aVbodet
p1589
aVnetaqu
p1590
aVmedicin
p1591
aVvia
p1592
aVvid
p1593
aVvie
p1594
aVenterat
p1595
aVvin
p1596
aVvio
p1597
aVyoutubers
p1598
aVsuced
p1599
aVtlaquiltenang
p1600
aVestocom
p1601
aVviv
p1602
aVfamili
p1603
aVgratuit
p1604
aVarmaron
p1605
aVamooooorrrr
p1606
aVaduen
p1607
aVasta
p1608
aVconocer
p1609
aVaver
p1610
aVacontec
p1611
aVcalient
p1612
aVwuuu
p1613
aVtrist
p1614
aVpobrez
p1615
aVyaho
p1616
aVprecios
p1617
aVvea
p1618
aVatencion
p1619
aVllorr
p1620
aVcer
p1621
aVdios
p1622
aVdifunidr
p1623
aVfronter
p1624
aVsacab
p1625
aVdiganqu
p1626
aVabraz
p1627
aVdes
p1628
aVsucks
p1629
aVhistori
p1630
aVpertenent
p1631
aVdej
p1632
aVdem
p1633
aVden
p1634
aVv
p1635
aVabandon
p1636
aVdeb
p1637
aVdec
p1638
aVdonacion
p1639
aVnecesari
p1640
aVpont
p1641
aVtuttar
p1642
aVatend
p1643
aVexigent
p1644
aVcompart
p1645
aVponi
p1646
aVwoowwwwww
p1647
aVpong
p1648
aVatent
p1649
aVvaleayudenl
p1650
aVamorgraci
p1651
aVpeluch
p1652
aVxfaaa
p1653
aVdivid
p1654
aVhugh
p1655
aVactu
p1656
aVamazon
p1657
aVembaj
p1658
aVjalisc
p1659
aVsiert
p1660
aVacto
p1661
aVoye
p1662
aVchul
p1663
aVpeoreeeee
p1664
aVaaaay
p1665
aVmexicoun
p1666
aValpanoc
p1667
aVcrowdfunding
p1668
aVviend
p1669
aVaaaaw
p1670
aVinstitu
p1671
aVperrit
p1672
aVfa
p1673
aVfb
p1674
aVpas
p1675
aVseman
p1676
aVguadalup
p1677
aVaaaaa
p1678
aVfundacion
p1679
aVgast
p1680
aVbogot
p1681
aVardi
p1682
aVulti
p1683
aVyoan
p1684
aVetiquet
p1685
aVcaus
p1686
aVantibiot
p1687
aVsebasti
p1688
aVyandel
p1689
aVmexican
p1690
aVhelp
p1691
aVparqu
p1692
aVdemasiadooo
p1693
aVfakenews
p1694
aVconfirm
p1695
aVzapat
p1696
aVsoldador
p1697
aVbrig
p1698
aVesquin
p1699
aVadmiir
p1700
aVpenw
p1701
aVstyle
p1702
aVsuscripcion
p1703
aVpens
p1704
aValla
p1705
aVbabos
p1706
aVadoptam
p1707
aVsugerent
p1708
aVamaestr
p1709
aVbendig
p1710
aVterritorial
p1711
aVgeneracion
p1712
aVcuart
p1713
aVpropagand
p1714
aVbendit
p1715
aVceg
p1716
aVedad
p1717
aVprayfor
p1718
aVcasit
p1719
aVreconstruccion
p1720
aVmalet
p1721
aVbasur
p1722
aVces
p1723
aVchamuyart
p1724
aVrecompens
p1725
aVoki
p1726
aVoaxac
p1727
aVranchit
p1728
aVchiautl
p1729
aVyt
p1730
aVoper
p1731
aVsubir
p1732
aVmorelosporfavor
p1733
aVpertenec
p1734
aVcercan
p1735
aVtra
p1736
aViguaaaal
p1737
aVdif
p1738
aVcc
p1739
aVbukis
p1740
aVmental
p1741
aVhari
p1742
aVapadrin
p1743
aVtipic
p1744
aVhard
p1745
aVbeib
p1746
aVinoportun
p1747
aVabrelat
p1748
aVverific
p1749
aVenergi
p1750
aVevent
p1751
aVaportacion
p1752
aVshampo
p1753
aVdiosss
p1754
aVdocil
p1755
aVrecib
p1756
aVretwitt
p1757
aVcachorr
p1758
aVizq
p1759
aVchimalhuac
p1760
aVdianit
p1761
aVtextil
p1762
aVmaquillaj
p1763
aVreci
p1764
aVmanch
p1765
aVrapidisim
p1766
aVpug
p1767
aVmocos
p1768
aVmms
p1769
aVmmm
p1770
aVpsron
p1771
aVsenor
p1772
aVgiveaway
p1773
aVase
p1774
aVput
p1775
aVverifiqu
p1776
aVdiri
p1777
aVacord
p1778
aVpur
p1779
aVpus
p1780
aVcdmx
p1781
aVprecari
p1782
aVmaquinari
p1783
aVfallec
p1784
aValmac
p1785
aVscouts
p1786
aVescaler
p1787
aVservici
p1788
aVpropiedad
p1789
aVfeel
p1790
aVnach
p1791
aVnaci
p1792
aVcomuniqu
p1793
aVfamos
p1794
aVdond
p1795
aVguap
p1796
aVhorribl
p1797
aValrededorguard
p1798
aVequi
p1799
aVgatit
p1800
aVempes
p1801
aVcastaned
p1802
aVechen
p1803
aVamarrarlopor
p1804
aVempez
p1805
aVmujeron
p1806
aVmami
p1807
aVstori
p1808
aVvolcanhuayapam
p1809
aVjej
p1810
aVmolesti
p1811
aVatasc
p1812
aVrazon
p1813
aVecuador
p1814
aVverdader
p1815
aVparc
p1816
aVseptiembr
p1817
aVsegui
p1818
aVarruin
p1819
aVtalvez
p1820
aVdesentendert
p1821
aVmmmm
p1822
aVchihuahu
p1823
aVasco
p1824
aVsegur
p1825
aVjantetelc
p1826
aVlisur
p1827
aVpalomit
p1828
aVmencion
p1829
aVdemuestr
p1830
aVacamp
p1831
aVcolegiorebsam
p1832
aVcontrari
p1833
aVgres
p1834
aVperfum
p1835
aVposibl
p1836
aVviaj
p1837
aVestupid
p1838
aVdebaji
p1839
aVdand
p1840
aVubic
p1841
aVgemel
p1842
aVriesg
p1843
aVreun
p1844
aVbendicion
p1845
aVfavooor
p1846
aVnecesit
p1847
aVgrandios
p1848
aVunaans
p1849
aVgall
p1850
aVdedic
p1851
aVsarcasticamentesol
p1852
aVimagin
p1853
aVlig
p1854
aVchilepor
p1855
aVlit
p1856
aVpasat
p1857
aVpasar
p1858
aVbuild
p1859
aVmiar
p1860
aVpiens
p1861
aVvieron
p1862
aVredes
p1863
aVnivel
p1864
aVplay
p1865
aVamoooo
p1866
aVamam
p1867
aVbavqjjajajajajajajajajajajajajajajajajajajajajajajajajaaj
p1868
aVpregunt
p1869
aVaman
p1870
aVvictim
p1871
aVcompr
p1872
aVplan
p1873
aVamas
p1874
aVdiferent
p1875
aVplac
p1876
aVanoch
p1877
aVreprend
p1878
aVpisote
p1879
aVgraci
p1880
aVsaratog
p1881
aVteteladelvolc
p1882
aVdifundal
p1883
aVpart
p1884
aVparr
p1885
aVocult
p1886
aVsuficient
p1887
aVpsdtlos
p1888
aVcolegioenriquerebsam
p1889
aVfond
p1890
aVcuernavac
p1891
aVrtt
p1892
aVdetall
p1893
aVpersonit
p1894
aVojo
p1895
aVfind
p1896
aVfing
p1897
aVqued
p1898
aVquej
p1899
aVrespuest
p1900
aVprefier
p1901
aVques
p1902
aVquer
p1903
aVcondon
p1904
aVtraun
p1905
aVluis
p1906
aVestari
p1907
aVconocert
p1908
aVbebecit
p1909
aVmomw
p1910
aVhis
p1911
aVcientif
p1912
aVgratis
p1913
aVequivoc
p1914
aVsalud
p1915
aVsismomex
p1916
aVpadresn
p1917
aVllamart
p1918
aVhic
p1919
aVaaa
p1920
aVhij
p1921
aVhil
p1922
aVfeald
p1923
aVespecif
p1924
aVpreocup
p1925
aVsuarez
p1926
aVlament
p1927
aVmadress
p1928
aVrecoleccion
p1929
aVcre
p1930
aVbellez
p1931
aVx
p1932
aVcri
p1933
aVbarr
p1934
aVser
p1935
aVreprodusc
p1936
aVsep
p1937
aVderrumb
p1938
aVsec
p1939
aVare
p1940
aVsem
p1941
aVhacert
p1942
aVseh
p1943
aVmovil
p1944
aVimss
p1945
aVwow
p1946
aVconstan
p1947
aVfans
p1948
aVdesepsion
p1949
aVatra
p1950
aVlatin
p1951
aVsoli
p1952
aVnumer
p1953
aVsold
p1954
aVestres
p1955
aVfelicitart
p1956
aVllegaleawhatsappmejor
p1957
aVcompetent
p1958
aVilusion
p1959
aVsolt
p1960
aVbrillant
p1961
aVbienven
p1962
aVdignid
p1963
aValoj
p1964
aVacept
p1965
aVtempor
p1966
aValos
p1967
aVocurri
p1968
aVbuenisim
p1969
aVimaginat
p1970
aVbeli
p1971
aVbell
p1972
aVcamin
p1973
aVoyee
p1974
aVcamil
p1975
aVandas
p1976
aVandar
p1977
aVandal
p1978
aVandan
p1979
aVpopotl
p1980
aVustedess
p1981
aVfeminazis
p1982
aVandab
p1983
aVpr
p1984
aVpu
p1985
aVdud
p1986
aVcivac
p1987
aVsecret
p1988
aVpa
p1989
aVdur
p1990
aVsedesol
p1991
aVfiltr
p1992
aVpm
p1993
aVfirm
p1994
aVejerc
p1995
aVrecibi
p1996
aVgat
p1997
aVgas
p1998
aVqueretar
p1999
aVgan
p2000
aVdeten
p2001
aVtemperament
p2002
aVartemi
p2003
aVrttttt
p2004
aVeduc
p2005
aVmilit
p2006
aVtambi
p2007
aVjujutl
p2008
aVsobr
p2009
aVsolit
p2010
aVtetel
p2011
aVcomezon
p2012
aVmoth
p2013
aVcentr
p2014
aVrifatela
p2015
aVcomport
p2016
aVrip
p2017
aVvot
p2018
aVrio
p2019
aVzalap
p2020
aVyuyaaaaa
p2021
aVvos
p2022
aVrif
p2023
aVauxili
p2024
aVric
p2025
aVvoz
p2026
aVria
p2027
aVmarqu
p2028
aVesten
p2029
aVminim
p2030
aVesteb
p2031
aVtqm
p2032
aVacomplet
p2033
aVdars
p2034
aVgrand
p2035
aVestes
p2036
aVkarm
p2037
aVcalent
p2038
aVinsulin
p2039
aVcaes
p2040
aVtoooopppp
p2041
aVllevenl
p2042
aVdesp
p2043
aVusem
p2044
aVvillareal
p2045
aValert
p2046
aVnoviembr
p2047
aVmoment
p2048
aVnonquier
p2049
aVcaem
p2050
aVapreci
p2051
aVboc
p2052
aVeleg
p2053
aVmerec
p2054
aVjijiji
p2055
aVperson
p2056
aVowww
p2057
aVdespens
p2058
aVporqueri
p2059
aVamp
p2060
aVviver
p2061
aVsam
p2062
aVasesori
p2063
aVdisel
p2064
aVcut
p2065
aVcur
p2066
aVcalor
p2067
aVinmens
p2068
aVellosn
p2069
aVcaraj
p2070
aVhuev
p2071
aVmandam
p2072
aVcun
p2073
aVhidraul
p2074
aVfisic
p2075
aVmujer
p2076
aVcomoayudarmx
p2077
aVayudam
p2078
aVbie
p2079
aVamarr
p2080
aVlanit
p2081
aVvolver
p2082
aVcanij
p2083
aVagradezc
p2084
aVbiv
p2085
aVindependient
p2086
aVtomal
p2087
aVenriquez
p2088
aVpondr
p2089
aVloooool
p2090
aVenxant
p2091
aVdificil
p2092
aVpendej
p2093
aVearthquak
p2094
aVriend
p2095
aVrifado
p2096
aVmejooor
p2097
aVmexc
p2098
aVpremium
p2099
aVissste
p2100
aValiment
p2101
aVqlit
p2102
aVglobal
p2103
aVurgent
p2104
aVvenezuel
p2105
aVbastant
p2106
aVtrendy
p2107
aVsurpris
p2108
aVinstint
p2109
aVadivin
p2110
aVpet
p2111
aVdecision
p2112
aVmedi
p2113
aVper
p2114
aVpes
p2115
aVpel
p2116
aVpen
p2117
aVtendri
p2118
aVped
p2119
aVprof
p2120
aVveterinari
p2121
aVprob
p2122
aVgerani
p2123
aVconstru
p2124
aVbb
p2125
aVnesecit
p2126
aVpiojos
p2127
aVrequier
p2128
aVby
p2129
aVsanti
p2130
aVkas
p2131
aVdetenid
p2132
aVmuestr
p2133
aVperd
p2134
aVentreten
p2135
aVido
p2136
aVsilenci
p2137
aVpropuest
p2138
aVchi
p2139
aVfuertemex
p2140
aVide
p2141
aVhahahah
p2142
aVagradecer
p2143
aVida
p2144
aVgrammy
p2145
aVaya
p2146
aValient
p2147
aVsaludam
p2148
aVmartinez
p2149
aVbotell
p2150
aVenfermeri
p2151
aVpasearson
p2152
aVimagen
p2153
aVcanal
p2154
aVbodoqu
p2155
aVrecostru
p2156
aVdireccion
p2157
aVlengu
p2158
aVhomuncul
p2159
aVparec
p2160
aVpapis
p2161
aVatrap
p2162
aVatras
p2163
aVpabl
p2164
aVdalay
p2165
aVorgull
p2166
aVfes
p2167
aVmsj
p2168
aVcomeni
p2169
aVdulc
p2170
aVtenert
p2171
aVlimpiez
p2172
aVinclu
p2173
aVlind
p2174
aVfotografi
p2175
aVinfo
p2176
aVpolitiz
p2177
aVexa
p2178
aVup
p2179
aVprep
p2180
aVplanet
p2181
aVpres
p2182
aVlindoy
p2183
aVfiabl
p2184
aVsenorit
p2185
aVinfluenci
p2186
aVutiliz
p2187
aVtecnic
p2188
aVcirugi
p2189
aVviany
p2190
aVreconcili
p2191
aVchal
p2192
aVlectur
p2193
aVchav
p2194
aVchau
p2195
aVnac
p2196
aVnad
p2197
aVnah
p2198
aVthanks
p2199
aVcoahuil
p2200
aVtard
p2201
aVayudaa
p2202
aVperfil
p2203
aVtransport
p2204
aVtravies
p2205
aVtech
p2206
aVmoch
p2207
aVensenan
p2208
aVplumon
p2209
aVaser
p2210
aVsismic
p2211
aVproblems
p2212
aVvigil
p2213
aVdimwl
p2214
aVdeserv
p2215
aVago
p2216
aVnacimient
p2217
aVyuyasiempr
p2218
aVe
p2219
aVgabytips
p2220
aVexig
p2221
aVustd
p2222
aVcuautl
p2223
aVmuchom
p2224
aVchaaal
p2225
aVmuchoo
p2226
aVagu
p2227
aVneces
p2228
aVhurac
p2229
aVlanz
p2230
aVrebsam
p2231
aVatotonilc
p2232
aVqueteng
p2233
aVgr
p2234
aVunen
p2235
aVqueri
p2236
aVenfad
p2237
aValomejor
p2238
aVretwit
p2239
aVmorel
p2240
aVprim
p2241
aVaplaud
p2242
aVdemasiadoooo
p2243
aVfotit
p2244
aVyuyissshoy
p2245
aVfatal
p2246
aVsent
p2247
aVobjet
p2248
aVaprend
p2249
aValcab
p2250
aVmiacatl
p2251
aVcostos
p2252
aVemocion
p2253
aVsuscribi
p2254
aVfacebook
p2255
aVpsdt
p2256
aVsencill
p2257
aVdimel
p2258
aVentoy
p2259
aVmagic
p2260
aVfuerzamex
p2261
aVplatic
p2262
aVenseri
p2263
aVmiral
p2264
aViba
p2265
aVmiraa
p2266
aVfortun
p2267
aVrelind
p2268
aVcolchonet
p2269
aVodi
p2270
aVgo
p2271
aVclick
p2272
aVcompar
p2273
aVcomunicacion
p2274
aVantoj
p2275
aVmaravill
p2276
aVluisit
p2277
aVpriv
p2278
aVpiensal
p2279
aVlea
p2280
aVlee
p2281
aVibid
p2282
aVlovearmymex
p2283
aVlei
p2284
aVmorelens
p2285
aVsiguem
p2286
aVasiend
p2287
aVley
p2288
aVpituf
p2289
aVayudalmund
p2290
aVsacal
p2291
aVjalap
p2292
aVtalent
p2293
aVsangr
p2294
aVgent
p2295
aVsufrimient
p2296
aVocacion
p2297
aVoficial
p2298
aVnopaler
p2299
aVcerr
p2300
aVchequ
p2301
aVopinion
p2302
aVhonor
p2303
aVcastig
p2304
aVvolc
p2305
aVwin
p2306
aVapp
p2307
aVmaldit
p2308
aVdisciplin
p2309
aVapu
p2310
aVvolv
p2311
aVsirv
p2312
aVcarin
p2313
aVpaqueteri
p2314
aVcha
p2315
aVolvid
p2316
aVfea
p2317
aVfeo
p2318
aVfel
p2319
aVtuberi
p2320
aVestetoscopi
p2321
aVlevant
p2322
aVapunt
p2323
aVimplic
p2324
aVnoch
p2325
aValrededor
p2326
aVsesion
p2327
aVdelegacion
p2328
aVdejam
p2329
aVdejal
p2330
aVbillet
p2331
aVom
p2332
aVtrail
p2333
aVconnig
p2334
aVpolinesi
p2335
aVchinamec
p2336
aVbaby
p2337
aVconfi
p2338
aVpenit
p2339
aVreproduct
p2340
aVjajaj
p2341
aVanimals
p2342
aVpromet
p2343
aVsabr
p2344
aVentenderrazon
p2345
aVwhen
p2346
aVjojult
p2347
aVsabi
p2348
aVtwiter
p2349
aVcomparacion
p2350
aVzacatec
p2351
aVcontrol
p2352
aVhip
p2353
aVtap
p2354
aVtar
p2355
aVtas
p2356
aVestup
p2357
aVlintern
p2358
aVfronterasinternistaucihemodinamiashockurgenciolog
p2359
aVquierooo
p2360
aVloquill
p2361
aVpreci
p2362
aVtaa
p2363
aVgobierb
p2364
aVtan
p2365
aVestuf
p2366
aVesper
p2367
aVeugenioderbez
p2368
aVanimat
p2369
aVaprovech
p2370
aVlamp
p2371
aVsig
p2372
aVanimal
p2373
aVcobaem
p2374
aVsii
p2375
aVsin
p2376
aVvibr
p2377
aVentreg
p2378
aVespecial
p2379
aVentren
p2380
aVencwri
p2381
aVcolaboracion
p2382
aVtach
p2383
aVfras
p2384
aVsonor
p2385
aVtier
p2386
aVdesobedient
p2387
aVporfavoor
p2388
aVllev
p2389
aVinspirar
p2390
aVinteres
p2391
aVmochil
p2392
aVterremot
p2393
aVlleg
p2394
aVobrer
p2395
aVllen
p2396
aVconcientiz
p2397
aVocup
p2398
aVmeter
p2399
aVmayones
p2400
aVhondur
p2401
aVcuestion
p2402
aVjimenez
p2403
aVjuandomeduel
p2404
aVgobern
p2405
aVbunch
p2406
aVperfect
p2407
aVspotify
p2408
aVimpid
p2409
aVent
p2410
aVlh
p2411
aVlabor
p2412
aVls
p2413
aVrabi
p2414
aVtembl
p2415
aVbye
p2416
aVeur
p2417
aVdaf
p2418
aVdal
p2419
aVdam
p2420
aVdan
p2421
aVmaterial
p2422
aVhastamananabesosmuchosbeb
p2423
aVdat
p2424
aVmention
p2425
aVpanchimalc
p2426
aVlindaa
p2427
aVfacilit
p2428
aVdar
p2429
aVdas
p2430
aValcanz
p2431
aVday
p2432
aVdiabet
p2433
aVpreveniresviv
p2434
aVcreart
p2435
aVpaisan
p2436
aVtrat
p2437
aVecatzing
p2438
aVtrav
p2439
aVtist
p2440
aVdesorden
p2441
aVrefier
p2442
aVconcepcion
p2443
aVcocin
p2444
aVdoing
p2445
aVproduct
p2446
aVacondicion
p2447
aVajajajaj
p2448
aVmira
p2449
aVapoyemoosahi
p2450
aVdiganm
p2451
aVcolombiaaa
p2452
aVmeti
p2453
aVsexual
p2454
aVsandy
p2455
aVdiganl
p2456
aVsient
p2457
aVdespej
p2458
aVinfluenc
p2459
aVres
p2460
aVreconstruirrepar
p2461
aVconsient
p2462
aVret
p2463
aVdemci
p2464
aVcategori
p2465
aVjuzg
p2466
aVred
p2467
aVsonador
p2468
aVsiiiiii
p2469
aVqur
p2470
aVpomeranz
p2471
aVloc
p2472
aVmostr
p2473
aVtorr
p2474
aVchiquit
p2475
aVdmas
p2476
aVpidel
p2477
aVqui
p2478
aVrecolec
p2479
aVetern
p2480
aVriver
p2481
aVconozc
p2482
aVfandub
p2483
aVcaig
p2484
aVfrent
p2485
aVvideojueg
p2486
aVtrabaj
p2487
aVnecesidadesy
p2488
aVorganiz
p2489
aVjudasn
p2490
aVcuent
p2491
aVblogger
p2492
aVfertz
p2493
aVecho
p2494
aVrafit
p2495
aVrafis
p2496
aVenceri
p2497
aVaxochiap
p2498
aVfacil
p2499
aVojit
p2500
aVobvi
p2501
aVcapaz
p2502
aVhambr
p2503
aVtermin
p2504
aVuds
p2505
aVmariand
p2506
aVbulldog
p2507
aVrecient
p2508
aVpalueg
p2509
aVescuch
p2510
aVnecesitamo
p2511
aVcontribu
p2512
aVbeb
p2513
aVraz
p2514
aVletraa
p2515
aVlleval
p2516
aVllevam
p2517
aVbes
p2518
aVsaqu
p2519
aVbet
p2520
aVtommi
p2521
aVsp
p2522
aVterribl
p2523
aVmiraaa
p2524
aVdemaci
p2525
aVvaci
p2526
aVcrezc
p2527
aVhijit
p2528
aVmij
p2529
aVmim
p2530
aVmil
p2531
aVmin
p2532
aVespant
p2533
aVmic
p2534
aVmid
p2535
aVmig
p2536
aVretweet
p2537
aVsergi
p2538
aVhefn
p2539
aVmir
p2540
aVdivers
p2541
aVjaim
p2542
aVsism
p2543
aVsol
p2544
aVvist
p2545
aVaww
p2546
aVawr
p2547
aVsedal
p2548
aVherman
p2549
aVbren
p2550
aVtaaant
p2551
aVbtis
p2552
aVjajajja
p2553
aVcaseeeee
p2554
aVunaper
p2555
aVensen
p2556
aVnmig
p2557
aVgest
p2558
aVfrancisc
p2559
aVencontr
p2560
aVnieg
p2561
aVmuy
p2562
aVreinis
p2563
aVciudadan
p2564
aVcamion
p2565
aVbrind
p2566
aVniet
p2567
aVtanbi
p2568
aVcomunicat
p2569
aVmolest
p2570
aVhahahahajajaj
p2571
aVuruguay
p2572
aVrasc
p2573
aVechal
p2574
aVmayori
p2575
aVsomosmex
p2576
aVforev
p2577
aVshould
p2578
aVjan
p2579
aVinund
p2580
aVenvi
p2581
aVjam
p2582
aVjaj
p2583
aVencant
p2584
aVjai
p2585
aVtapi
p2586
aVperdon
p2587
aVplantel
p2588
aVlocal
p2589
aVlindooo
p2590
aVcuern
p2591
aVsuen
p2592
aVsuel
p2593
aVpatrocin
p2594
aVargentin
p2595
aVamiguit
p2596
aVautor
p2597
aVacces
p2598
aVcubr
p2599
aVtendenci
p2600
aVcuerp
p2601
aVira
p2602
aVarteterapi
p2603
aVtuawards
p2604
aVlobq
p2605
aVviej
p2606
aVqu
p2607
aVvien
p2608
aVnomidan
p2609
aVgust
p2610
aVgras
p2611
aVdevast
p2612
aVyoutebers
p2613
aVqe
p2614
aVgran
p2615
aVpasenm
p2616
aVgrab
p2617
aVgrac
p2618
aVtienesgtlt
p2619
aValtern
p2620
aVbtw
p2621
aVsupertragedi
p2622
aVyoss
p2623
aVcompartit
p2624
aVcantid
p2625
aVjardin
p2626
aVteni
p2627
aVmiel
p2628
aVcloset
p2629
aVplatan
p2630
aVluz
p2631
aVmied
p2632
aVfavor
p2633
aVlug
p2634
aVtens
p2635
aVcolombian
p2636
aVcomoperr
p2637
aVentidad
p2638
aVlosient
p2639
aVdesbloqu
p2640
aVjot
p2641
aVamen
p2642
aVmagi
p2643
aVanimalit
p2644
aVopcion
p2645
aVayudaciudadan
p2646
aVgroser
p2647
aVtierr
p2648
aVborrart
p2649
aVetc
p2650
aVwtc
p2651
aVadmir
p2652
aVami
p2653
aVcaers
p2654
aVarticul
p2655
aVinnecesari
p2656
aVvent
p2657
aVci
p2658
aVco
p2659
aVcostumbr
p2660
aVcm
p2661
aVjajajajajajjaj
p2662
aVca
p2663
aVparecer
p2664
aVorit
p2665
aVdoming
p2666
aVcd
p2667
aVvend
p2668
aVveng
p2669
aVvenc
p2670
aVcs
p2671
aVpugs
p2672
aVwilly
p2673
aVquit
p2674
aVviejit
p2675
aVbesit
p2676
aVpin
p2677
aVquis
p2678
aVjajajajajajjajajajajjaj
p2679
aVentend
p2680
aVrumb
p2681
aVrecolect
p2682
aVcient
p2683
aVdefini
p2684
aVfeliz
p2685
aVcuidat
p2686
aVyaa
p2687
aVboti
p2688
aVgtv
p2689
aVencuentr
p2690
aVguant
p2691
aVotc
p2692
aVcoxn
p2693
aVador
p2694
aVsensei
p2695
aVpresent
p2696
aVcansadit
p2697
aVchamac
p2698
aVeducacion
p2699
aVpanteon
p2700
aVempiec
p2701
aVempiez
p2702
aVyuyit
p2703
aVyuyis
p2704
aVcountry
p2705
aVchalc
p2706
aVgordit
p2707
aVcerciorat
p2708
aVyuyix
p2709
aVporfaaa
p2710
aVve
p2711
aVnom
p2712
aVvi
p2713
aVjajaja
p2714
aVcultur
p2715
aVengan
p2716
aVvs
p2717
aVbelind
p2718
aVrevis
p2719
aVanos
p2720
aVecharl
p2721
aVpis
p2722
aVporteri
p2723
aVrotopl
p2724
aVjuan
p2725
aVproximp
p2726
aVgui
p2727
aVfinanci
p2728
aVcint
p2729
aVprobabl
p2730
aVantepon
p2731
aVball
p2732
aVpein
p2733
aVpelon
p2734
aVcondes
p2735
aVmuuuch
p2736
aVpedaz
p2737
aVtepalcing
p2738
aVkevsh
p2739
aVsigui
p2740
aVactualiz
p2741
aVapoll
p2742
aVoff
p2743
aVarra
p2744
aVarizp
p2745
aVparejit
p2746
aVperrosrescat
p2747
aVonda
p2748
aVsofii
p2749
aVyautepec
p2750
aVabaj
p2751
aVtq
p2752
aVhands
p2753
aVsufr
p2754
aVclinic
p2755
aVracional
p2756
aVencontrart
p2757
aVencatari
p2758
aVchiqu
p2759
aVenamoradaa
p2760
aVnnnnmiiijhq
p2761
aVrapid
p2762
aVestupidez
p2763
aVwee
p2764
aVintercambi
p2765
aVvide
p2766
aVyuyacst
p2767
aVdesinform
p2768
aVfal
p2769
aVwey
p2770
aVapoyart
p2771
aVpiel
p2772
aVequivoqu
p2773
aVtlalp
p2774
aVdeseam
p2775
aVpied
p2776
aVcrud
p2777
aVrealid
p2778
aVbenshorts
p2779
aVjajajajja
p2780
aVcruz
p2781
aVdese
p2782
aVdecepcion
p2783
aVmejoor
p2784
aVprest
p2785
aVsofi
p2786
aVaccion
p2787
aVtiembl
p2788
aVimbecil
p2789
aVesq
p2790
aVmartill
p2791
aVexplicart
p2792
aVjajajajajajajaj
p2793
aVzacatepec
p2794
aVzamor
p2795
aVayudel
p2796
aVarmand
p2797
aVmuri
p2798
aVtran
p2799
aVmagnat
p2800
aVtuit
p2801
aVayudenn
p2802
aVayudenm
p2803
aVayudenl
p2804
aVprosig
p2805
aVamooooooo
p2806
aViguald
p2807
aVrecognition
p2808
aVchancr
p2809
aVarnes
p2810
aVest
p2811
aVabridor
p2812
aVjjajajaj
p2813
aVlean
p2814
aVleal
p2815
aVfandoms
p2816
aVleas
p2817
aVtmb
p2818
aVesc
p2819
aVortografi
p2820
aVpuef
p2821
aVpued
p2822
aVirracional
p2823
aVechand
p2824
aVconnaitr
p2825
aVrealment
p2826
aVoyeee
p2827
aVyuyaaa
p2828
aVinolvid
p2829
aVusad
p2830
aValegri
p2831
aVhow
p2832
aVrefugi
p2833
aVhermanit
p2834
aVyya
p2835
aVxalap
p2836
aVestresadit
p2837
aVmonetari
p2838
aVabout
p2839
aVurgen
p2840
aVjustin
p2841
aVextension
p2842
aVhiel
p2843
aVurgee
p2844
aVgsmm
p2845
aVzambran
p2846
aVpue
p2847
aVmetr
p2848
aVtendeci
p2849
aVyuyi
p2850
aVdispon
p2851
aVyuya
p2852
aVchula
p2853
aVguard
p2854
aVcaden
p2855
aVmerc
p2856
aVparezc
p2857
aVsifilis
p2858
aVbuenis
p2859
aVval
p2860
aVvam
p2861
aVresec
p2862
aVvaa
p2863
aVbanc
p2864
aVjalateacu
p2865
aVbotit
p2866
aVvay
p2867
aVnecsit
p2868
aVmandel
p2869
aVvas
p2870
aVestructur
p2871
aVvat
p2872
aVayudarrrr
p2873
aVdesbloqui
p2874
aVsimplement
p2875
aVxoxocotl
p2876
aVyeah
p2877
aVho
p2878
aVchecal
p2879
aVhg
p2880
aVcibel
p2881
aVinfiel
p2882
aVentendi
p2883
aVprinces
p2884
aVevident
p2885
aVrecorr
p2886
aVvolvi
p2887
aVdelincuent
p2888
aVaajjaj
p2889
aVincompetent
p2890
aVinsomni
p2891
aVmadr
p2892
aVpuert
p2893
aVey
p2894
aVproblem
p2895
aVgeograf
p2896
aVcolegi
p2897
aVjuguet
p2898
aVpil
p2899
aVweyy
p2900
aVevalu
p2901
aVdesvel
p2902
aVporfavorn
p2903
aVpic
p2904
aVpid
p2905
aVpie
p2906
aVdisfrutal
p2907
aVcircul
p2908
aVerik
p2909
aVincreibl
p2910
aVahre
p2911
aVerid
p2912
aVing
p2913
aVtuiter
p2914
aVcuelg
p2915
aVriat
p2916
aVatrapasuen
p2917
aVcontest
p2918
aVmedicost
p2919
aVchocolat
p2920
aVafectadosimpid
p2921
aVingles
p2922
aVjajajajajajaj
p2923
aVfutur
p2924
aVsharit
p2925
aVescasez
p2926
aVtotolap
p2927
aVcomunic
p2928
aVjustsaying
p2929
aVseguirt
p2930
aVperinort
p2931
aVchilaquil
p2932
aVmejorr
p2933
aVescuel
p2934
aVhazm
p2935
aVchancl
p2936
aVjunt
p2937
aVpodi
p2938
aVcoordin
p2939
aVsecundari
p2940
aVblogs
p2941
aVrecuper
p2942
aVextran
p2943
aVencantaaa
p2944
aVexperient
p2945
aVvestirt
p2946
aVcoleccion
p2947
aVpodr
p2948
aVsincer
p2949
a.